Certificate:
    Data:
        Version: 3 (0x2)
        Serial Number:
            eb:83:ea:1f:5b:be:3b:1e:4b:7a:8c:6b:cd:2a:4f:28
    Signature Algorithm: sha256WithRSAEncryption
        Issuer: C=CN, O=yijian, CN=Root CA
        Validity
            Not Before: Jan 15 04:17:33 2017 GMT
            Not After : Jan 13 04:17:33 2027 GMT
        Subject: C=CN, O=yijian, CN=Root CA
        Subject Public Key Info:
            Public Key Algorithm: rsaEncryption
                Public-Key: (4096 bit)
                Modulus:
                    00:cc:f0:1b:e3:fb:88:91:cd:4d:87:ab:1b:6d:5f:
                    a3:b9:70:2f:b8:46:83:44:26:e4:11:1d:57:51:10:
                    41:29:af:fc:3a:64:44:42:e5:c2:e5:a7:8e:b2:a2:
                    61:b4:f2:4f:2c:95:e2:2f:12:c9:0c:ef:29:ed:8a:
                    51:9c:cb:8f:d2:46:ce:83:fe:c1:a3:5c:98:ba:55:
                    72:81:9c:f3:69:19:07:60:aa:aa:d8:e0:35:52:18:
                    8e:ab:cb:11:5a:81:e8:2c:fb:fb:52:62:11:5c:13:
                    29:b2:52:2a:eb:b6:75:57:81:72:e9:04:c4:5b:fd:
                    e5:dd:ff:71:8c:7c:ec:37:24:cb:98:ce:58:a0:c8:
                    08:bf:07:6e:4f:a6:fd:b9:0f:5b:c3:81:d1:fb:2d:
                    ed:d8:e3:84:d8:76:24:e1:30:23:83:0e:7c:99:a6:
                    3c:bb:eb:5e:d0:fc:53:b5:75:6a:0f:59:89:97:e0:
                    e1:81:15:f3:99:b6:d2:e0:5c:6e:1e:65:10:94:34:
                    e9:d3:5f:c4:b0:36:69:5c:3c:9c:4d:13:01:f9:32:
                    9e:2c:9c:3d:6f:33:19:1a:20:3b:e0:40:16:75:cb:
                    00:46:1f:80:c5:c2:92:e7:38:68:bd:1d:3c:e2:44:
                    2b:28:64:8c:07:f1:4e:fb:37:03:26:62:d5:79:d6:
                    f6:1e:b1:ff:86:26:f7:5f:31:47:5e:f8:ed:26:33:
                    c3:2b:96:a8:48:fb:86:bf:06:02:d3:e3:ad:a5:47:
                    21:a3:40:41:8a:5c:48:9f:a5:c5:49:c6:98:05:e0:
                    c0:3c:01:f8:05:35:5a:61:d4:e1:a5:99:02:d0:d8:
                    9a:9b:fd:9c:49:44:24:33:99:d7:14:4f:c0:16:a4:
                    41:df:0f:93:99:ca:8e:27:dd:f7:38:70:02:93:90:
                    2e:9f:b2:2e:77:86:09:75:99:42:d8:61:6b:ad:e1:
                    18:a6:92:d5:7f:c9:24:18:74:5c:91:39:df:c3:e0:
                    10:bf:bf:07:77:80:05:5f:03:b4:6f:e1:24:fa:71:
                    39:08:89:e7:64:c0:b9:54:92:04:b4:ee:14:13:d6:
                    e0:2e:59:66:4e:34:d4:c7:55:d2:e1:ac:55:c3:f3:
                    c3:cd:06:75:96:55:16:eb:74:c9:85:77:44:73:28:
                    ae:bc:cd:43:bb:53:10:45:03:d8:2d:ca:e2:ec:19:
                    f3:f1:56:56:4d:e7:03:36:5e:a6:ed:e5:2a:7e:00:
                    0f:f6:b9:27:f7:dc:00:f6:96:c3:58:7e:f9:98:3b:
                    86:67:84:09:29:3b:76:6f:db:13:d6:b6:5e:23:9f:
                    51:3d:d6:ff:2c:ef:ad:59:e4:fa:ad:22:93:91:4f:
                    36:5a:b7
                Exponent: 65537 (0x10001)
        X509v3 extensions:
            X509v3 Basic Constraints: critical
                CA:TRUE
            X509v3 Key Usage: critical
                Certificate Sign, CRL Sign
            X509v3 Subject Key Identifier: 
                63:42:24:CB:EF:A3:69:6A:B1:74:D9:8E:44:3E:1F:32:EA:05:58:64
    Signature Algorithm: sha256WithRSAEncryption
         ba:b8:ca:ff:d6:19:c6:13:6f:b9:b1:45:22:33:94:56:ac:f8:
         f1:cf:c6:b7:46:1c:5c:9a:36:d9:b5:74:ab:c3:04:28:20:53:
         de:5c:37:44:d3:53:99:6a:a4:12:01:65:6e:23:0e:1d:cb:cc:
         14:15:3b:46:3f:01:ae:a5:14:cf:38:2d:e3:c6:e6:96:32:ef:
         68:f2:db:42:39:c5:a5:8e:1b:df:88:d5:00:d5:55:5a:95:21:
         47:f6:f6:16:c7:57:8f:64:9e:9d:34:80:2c:2f:ce:6d:91:b7:
         d9:77:d2:dc:94:2c:2b:92:98:6d:a6:b5:f3:f2:72:c4:f7:4a:
         7e:48:08:a0:5e:f2:d8:5e:56:c8:df:7b:1b:b7:18:74:1f:10:
         e1:36:5b:bf:3e:74:a0:8d:b9:ed:dc:76:c9:1e:c1:cc:b5:17:
         34:d4:ce:a7:e0:26:39:19:7d:ec:63:67:46:bf:7a:64:27:1c:
         43:01:d0:4c:57:3a:a2:95:a6:cb:03:8f:5c:88:45:1f:3d:03:
         37:2b:1f:65:6f:d0:20:16:de:39:e1:cb:cc:a6:f7:b7:57:9f:
         4a:23:f7:50:9a:7f:56:5f:50:e7:9c:03:78:4a:25:ef:8d:c5:
         61:6a:63:84:c7:de:28:8f:17:3d:74:22:49:90:91:ac:c1:97:
         36:02:fe:35:90:94:68:77:39:5c:0c:12:6e:69:0f:ce:cb:9c:
         c4:5c:99:48:08:c3:5e:02:1c:8d:16:8b:da:ba:9c:71:35:1d:
         87:c1:eb:13:5f:37:38:4a:7f:e8:2b:fe:c8:30:27:ec:f8:06:
         b6:f2:37:d0:b7:1d:06:22:91:46:c4:c9:76:d4:6f:7d:c0:24:
         b4:32:8d:8f:35:93:cd:af:d5:f0:b6:c3:65:08:bd:6e:29:99:
         07:c7:52:1e:91:50:a9:f4:9a:7a:cb:67:9f:99:98:fa:5a:f1:
         22:ee:56:e6:67:f3:9b:c7:a1:00:21:8e:39:a0:45:07:6b:7a:
         94:9f:61:b3:62:cb:32:97:8a:bd:79:14:26:3f:1b:cc:1c:62:
         d9:92:14:19:c8:fc:d1:6e:72:6e:65:6e:32:36:07:2c:bd:65:
         fb:be:b1:18:6c:77:b5:b0:72:e3:20:9b:cd:0c:03:db:d1:27:
         2b:c1:cf:3d:81:28:d2:92:20:b3:78:b1:f0:8c:63:33:e8:9b:
         2a:0b:93:f7:8e:5b:90:b2:de:a8:6b:33:bd:15:81:f1:60:45:
         df:10:7a:1f:bc:67:ac:3d:b7:4b:76:1e:1f:95:2c:38:39:5c:
         47:dc:cf:6f:0d:44:d8:c2:d1:7c:8a:f4:e0:05:80:71:55:e3:
         42:1c:f3:fa:d7:c2:b1:24
-----BEGIN CERTIFICATE-----
MIIFLTCCAxWgAwIBAgIRAOuD6h9bvjseS3qMa80qTygwDQYJKoZIhvcNAQELBQAw
MDELMAkGA1UEBhMCQ04xDzANBgNVBAoMBnlpamlhbjEQMA4GA1UEAwwHUm9vdCBD
QTAeFw0xNzAxMTUwNDE3MzNaFw0yNzAxMTMwNDE3MzNaMDAxCzAJBgNVBAYTAkNO
MQ8wDQYDVQQKDAZ5aWppYW4xEDAOBgNVBAMMB1Jvb3QgQ0EwggIiMA0GCSqGSIb3
DQEBAQUAA4ICDwAwggIKAoICAQDM8Bvj+4iRzU2HqxttX6O5cC+4RoNEJuQRHVdR
EEEpr/w6ZERC5cLlp46yomG08k8sleIvEskM7yntilGcy4/SRs6D/sGjXJi6VXKB
nPNpGQdgqqrY4DVSGI6ryxFagegs+/tSYhFcEymyUirrtnVXgXLpBMRb/eXd/3GM
fOw3JMuYzligyAi/B25Ppv25D1vDgdH7Le3Y44TYdiThMCODDnyZpjy7617Q/FO1
dWoPWYmX4OGBFfOZttLgXG4eZRCUNOnTX8SwNmlcPJxNEwH5Mp4snD1vMxkaIDvg
QBZ1ywBGH4DFwpLnOGi9HTziRCsoZIwH8U77NwMmYtV51vYesf+GJvdfMUde+O0m
M8MrlqhI+4a/BgLT462lRyGjQEGKXEifpcVJxpgF4MA8AfgFNVph1OGlmQLQ2Jqb
/ZxJRCQzmdcUT8AWpEHfD5OZyo4n3fc4cAKTkC6fsi53hgl1mULYYWut4RimktV/
ySQYdFyROd/D4BC/vwd3gAVfA7Rv4ST6cTkIiedkwLlUkgS07hQT1uAuWWZONNTH
VdLhrFXD88PNBnWWVRbrdMmFd0RzKK68zUO7UxBFA9gtyuLsGfPxVlZN5wM2Xqbt
5Sp+AA/2uSf33AD2lsNYfvmYO4ZnhAkpO3Zv2xPWtl4jn1E91v8s761Z5PqtIpOR
TzZatwIDAQABo0IwQDAPBgNVHRMBAf8EBTADAQH/MA4GA1UdDwEB/wQEAwIBBjAd
BgNVHQ4EFgQUY0Iky++jaWqxdNmORD4fMuoFWGQwDQYJKoZIhvcNAQELBQADggIB
ALq4yv/WGcYTb7mxRSIzlFas+PHPxrdGHFyaNtm1dKvDBCggU95cN0TTU5lqpBIB
ZW4jDh3LzBQVO0Y/Aa6lFM84LePG5pYy72jy20I5xaWOG9+I1QDVVVqVIUf29hbH
V49knp00gCwvzm2Rt9l30tyULCuSmG2mtfPycsT3Sn5ICKBe8theVsjfexu3GHQf
EOE2W78+dKCNue3cdskewcy1FzTUzqfgJjkZfexjZ0a/emQnHEMB0ExXOqKVpssD
j1yIRR89AzcrH2Vv0CAW3jnhy8ym97dXn0oj91Caf1ZfUOecA3hKJe+NxWFqY4TH
3iiPFz10IkmQkazBlzYC/jWQlGh3OVwMEm5pD87LnMRcmUgIw14CHI0Wi9q6nHE1
HYfB6xNfNzhKf+gr/sgwJ+z4BrbyN9C3HQYikUbEyXbUb33AJLQyjY81k82v1fC2
w2UIvW4pmQfHUh6RUKn0mnrLZ5+ZmPpa8SLuVuZn85vHoQAhjjmgRQdrepSfYbNi
yzKXir15FCY/G8wcYtmSFBnI/NFucm5lbjI2Byy9Zfu+sRhsd7WwcuMgm80MA9vR
JyvBzz2BKNKSILN4sfCMYzPomyoLk/eOW5Cy3qhrM70VgfFgRd8Qeh+8Z6w9t0t2
Hh+VLDg5XEfcz28NRNjC0XyK9OAFgHFV40Ic8/rXwrEk
-----END CERTIFICATE-----
