Certificate:
    Data:
        Version: 3 (0x2)
        Serial Number:
            eb:83:ea:1f:5b:be:3b:1e:4b:7a:8c:6b:cd:2a:4f:26
    Signature Algorithm: sha256WithRSAEncryption
        Issuer: C=CN, O=Yijian, CN=Root CA
        Validity
            Not Before: Jan  7 15:13:00 2017 GMT
            Not After : Feb  6 15:13:00 2017 GMT
        Subject: C=CN, O=Yijian, CN=OCSP Root Responder
        Subject Public Key Info:
            Public Key Algorithm: rsaEncryption
                Public-Key: (2048 bit)
                Modulus:
                    00:d2:45:84:7f:96:c5:a3:31:54:9a:d3:51:f3:6a:
                    cc:d2:f5:07:ba:a0:a7:e4:b6:cb:6a:19:3c:43:89:
                    92:2f:0d:38:e8:e0:3a:bf:ae:d8:5e:70:5c:3b:2d:
                    d8:81:aa:92:65:f7:4c:16:ba:2a:99:c9:ab:a0:49:
                    8b:a1:c7:ca:74:31:95:cb:54:2e:a5:b7:e8:85:2f:
                    4d:99:41:c6:25:36:c0:08:c9:2c:02:31:bf:39:ce:
                    47:06:8d:77:67:7a:ed:a6:72:d5:e1:93:5f:96:40:
                    cb:20:79:bf:f3:d1:dd:55:5a:50:0d:bb:3b:a8:df:
                    58:0f:80:18:15:79:19:17:80:88:9f:38:8a:ae:a0:
                    f0:ff:e3:73:6f:44:d8:63:bb:cc:1b:fd:62:ce:b6:
                    eb:7d:f9:0d:ab:4f:1e:ab:a7:1d:bb:34:ff:af:13:
                    75:3b:a5:a9:07:7b:2a:55:9e:07:e3:13:e4:91:62:
                    ed:f9:a9:30:5b:7c:fa:96:de:1e:6e:7c:dc:23:e2:
                    62:01:50:2f:eb:74:8f:ac:80:a9:7f:10:8d:40:b5:
                    51:88:2a:6c:8c:d4:66:9c:29:25:a5:6d:32:03:78:
                    fc:bf:8d:4f:4c:a9:09:8a:47:39:fd:52:77:ac:d3:
                    6b:3b:69:51:3b:b2:ab:28:f6:30:8f:cd:2f:43:1f:
                    35:27
                Exponent: 65537 (0x10001)
        X509v3 extensions:
            X509v3 Authority Key Identifier: 
                keyid:72:0B:06:61:34:25:5B:55:D3:29:F3:E3:1F:5F:67:9A:CC:D5:94:DA

            X509v3 Basic Constraints: critical
                CA:FALSE
            X509v3 Extended Key Usage: 
                OCSP Signing
            X509v3 Key Usage: critical
                Digital Signature
            X509v3 Subject Key Identifier: 
                30:30:BC:67:66:A5:C2:1D:A4:68:20:C8:55:51:44:97:2B:FE:1F:D7
    Signature Algorithm: sha256WithRSAEncryption
         be:a7:5b:b3:4b:7a:b7:aa:b2:d1:90:1b:5b:b1:ee:e1:ab:85:
         df:57:4c:e8:fd:a1:f5:48:4a:52:56:c6:de:80:35:1d:00:91:
         2b:d8:d8:0d:6f:b9:cb:57:3f:09:c6:ec:df:f8:d7:70:83:e0:
         4a:81:4b:01:30:fd:e5:9b:d6:c9:16:90:82:70:46:77:51:7a:
         be:12:f3:0d:86:e3:96:a3:2c:04:23:98:93:fd:5e:c0:9c:52:
         ee:52:fa:96:ce:fe:f6:4e:be:40:3e:ba:f8:eb:20:6e:49:ed:
         75:58:ef:16:e5:50:3c:4b:50:ec:64:0f:c7:7e:28:68:f6:8a:
         9b:13:dd:ae:30:f8:9c:ed:3d:37:91:08:fd:0b:35:fc:ad:bf:
         d8:e4:d9:46:a7:59:43:70:56:3d:3f:75:70:11:58:fc:67:ae:
         47:cf:bf:cb:57:97:af:da:33:7d:68:a9:e6:e6:97:5a:64:48:
         d2:20:ba:07:78:bf:15:6c:d0:f9:97:64:74:73:be:c8:6f:38:
         88:07:31:6f:c0:dc:4c:cd:39:a4:ca:1d:ca:d8:dd:e0:60:4b:
         2d:3a:23:b5:b3:26:5d:c3:32:5f:c2:a3:2c:10:9d:3f:de:5c:
         1e:02:b2:0b:6d:b8:53:ac:f4:06:51:f3:fe:2f:fe:99:da:76:
         d8:e5:57:a2:8a:de:9c:b2:a6:b5:c2:8f:bd:85:44:22:c0:03:
         4a:4b:f1:d4:8f:24:4e:6e:fc:8b:ca:7c:e4:9a:d0:06:a3:12:
         ce:7f:a4:e4:19:c0:3a:bd:e6:64:59:54:a9:7d:ac:f7:34:03:
         54:e4:a3:55:13:6d:ff:be:98:c9:59:6d:ef:4f:d5:15:a6:01:
         6c:2f:63:e6:c8:88:27:41:b4:30:5b:d3:0f:61:f6:c7:0c:66:
         19:49:4a:f0:53:e2:ee:f1:1c:7b:da:7e:51:3a:08:6a:02:3f:
         7e:ed:47:1f:ec:00:00:0a:fe:0d:39:55:34:c2:4f:e5:61:f3:
         b9:55:9b:e9:86:2c:cd:8a:a6:4b:a2:3a:31:b8:9d:5a:3a:0b:
         47:9d:92:3b:22:52:41:b7:b5:c0:04:77:c7:31:6a:c1:e3:f4:
         8d:a6:dc:d6:81:08:e0:7e:fd:b0:92:2d:e1:b2:3e:42:e3:21:
         21:14:ce:f2:df:8d:21:18:f5:a1:1d:52:e2:5c:b8:a3:1a:74:
         47:37:db:08:86:69:53:22:50:48:ec:e6:75:a8:8b:da:cf:38:
         fa:ad:18:b1:e8:c6:49:53:53:0d:d1:7d:30:c2:63:26:28:53:
         07:e9:71:52:ea:a8:2d:11:2b:52:f0:48:02:c3:69:58:11:93:
         c7:8f:99:9e:00:8b:63:4f
-----BEGIN CERTIFICATE-----
MIIEbDCCAlSgAwIBAgIRAOuD6h9bvjseS3qMa80qTyYwDQYJKoZIhvcNAQELBQAw
MDELMAkGA1UEBhMCQ04xDzANBgNVBAoMBllpamlhbjEQMA4GA1UEAwwHUm9vdCBD
QTAeFw0xNzAxMDcxNTEzMDBaFw0xNzAyMDYxNTEzMDBaMDwxCzAJBgNVBAYTAkNO
MQ8wDQYDVQQKDAZZaWppYW4xHDAaBgNVBAMME09DU1AgUm9vdCBSZXNwb25kZXIw
ggEiMA0GCSqGSIb3DQEBAQUAA4IBDwAwggEKAoIBAQDSRYR/lsWjMVSa01HzaszS
9Qe6oKfktstqGTxDiZIvDTjo4Dq/rthecFw7LdiBqpJl90wWuiqZyaugSYuhx8p0
MZXLVC6lt+iFL02ZQcYlNsAIySwCMb85zkcGjXdneu2mctXhk1+WQMsgeb/z0d1V
WlANuzuo31gPgBgVeRkXgIifOIquoPD/43NvRNhju8wb/WLOtut9+Q2rTx6rpx27
NP+vE3U7pakHeypVngfjE+SRYu35qTBbfPqW3h5ufNwj4mIBUC/rdI+sgKl/EI1A
tVGIKmyM1GacKSWlbTIDePy/jU9MqQmKRzn9Unes02s7aVE7sqso9jCPzS9DHzUn
AgMBAAGjdTBzMB8GA1UdIwQYMBaAFHILBmE0JVtV0ynz4x9fZ5rM1ZTaMAwGA1Ud
EwEB/wQCMAAwEwYDVR0lBAwwCgYIKwYBBQUHAwkwDgYDVR0PAQH/BAQDAgeAMB0G
A1UdDgQWBBQwMLxnZqXCHaRoIMhVUUSXK/4f1zANBgkqhkiG9w0BAQsFAAOCAgEA
vqdbs0t6t6qy0ZAbW7Hu4auF31dM6P2h9UhKUlbG3oA1HQCRK9jYDW+5y1c/Ccbs
3/jXcIPgSoFLATD95ZvWyRaQgnBGd1F6vhLzDYbjlqMsBCOYk/1ewJxS7lL6ls7+
9k6+QD66+OsgbkntdVjvFuVQPEtQ7GQPx34oaPaKmxPdrjD4nO09N5EI/Qs1/K2/
2OTZRqdZQ3BWPT91cBFY/GeuR8+/y1eXr9ozfWip5uaXWmRI0iC6B3i/FWzQ+Zdk
dHO+yG84iAcxb8DcTM05pModytjd4GBLLTojtbMmXcMyX8KjLBCdP95cHgKyC224
U6z0BlHz/i/+mdp22OVXoorenLKmtcKPvYVEIsADSkvx1I8kTm78i8p85JrQBqMS
zn+k5BnAOr3mZFlUqX2s9zQDVOSjVRNt/76YyVlt70/VFaYBbC9j5siIJ0G0MFvT
D2H2xwxmGUlK8FPi7vEce9p+UToIagI/fu1HH+wAAAr+DTlVNMJP5WHzuVWb6YYs
zYqmS6I6MbidWjoLR52SOyJSQbe1wAR3xzFqweP0jabc1oEI4H79sJIt4bI+QuMh
IRTO8t+NIRj1oR1S4ly4oxp0RzfbCIZpUyJQSOzmdaiL2s84+q0YsejGSVNTDdF9
MMJjJihTB+lxUuqoLRErUvBIAsNpWBGTx4+ZngCLY08=
-----END CERTIFICATE-----
