Certificate:
    Data:
        Version: 3 (0x2)
        Serial Number:
            eb:83:ea:1f:5b:be:3b:1e:4b:7a:8c:6b:cd:2a:4f:2e
    Signature Algorithm: sha256WithRSAEncryption
        Issuer: C=CN, O=yijian, CN=Root CA
        Validity
            Not Before: Jan 16 02:22:07 2017 GMT
            Not After : Jan 14 02:22:07 2027 GMT
        Subject: C=CN, O=yijian, CN=Sub CA
        Subject Public Key Info:
            Public Key Algorithm: rsaEncryption
                Public-Key: (4096 bit)
                Modulus:
                    00:bf:ff:b1:b2:64:5f:f8:23:0a:62:23:99:88:2e:
                    eb:0c:61:74:fc:d7:7d:8d:6e:60:4a:f8:f5:62:22:
                    9d:50:5e:1e:1c:b5:fd:ea:4f:38:16:2e:e9:d3:74:
                    7c:e8:25:e7:59:32:f8:a1:27:83:23:ea:ab:8e:77:
                    1c:6b:82:00:c4:ab:7d:f0:1d:87:6b:ed:b8:bb:85:
                    f8:81:79:39:54:87:8a:03:97:59:96:dd:99:8f:6f:
                    f7:32:bf:f5:28:71:38:5f:1c:47:56:9e:e9:79:08:
                    1a:9b:bd:81:26:31:24:84:81:76:1d:dc:d1:ed:f7:
                    21:67:58:30:f5:45:6e:9c:7f:b0:5e:02:a5:1c:dc:
                    1d:e5:49:bb:b8:7b:a1:7d:15:7c:27:51:d0:23:22:
                    b4:67:20:0d:03:23:80:f7:99:93:7a:82:bb:9e:44:
                    68:21:66:55:d5:79:06:98:7e:89:3a:0f:d8:7a:da:
                    a4:36:b9:94:0b:73:4c:82:19:81:a0:97:6a:fb:28:
                    ab:c9:33:31:21:7b:69:ca:b3:ca:21:8b:28:14:c3:
                    75:95:73:9f:ae:8d:07:d9:c6:df:1b:20:23:ba:41:
                    71:8b:db:4a:51:2b:db:33:88:82:75:a8:b9:5a:2a:
                    6e:79:00:06:07:8e:96:7c:62:5b:7d:9a:9a:dd:b6:
                    a3:96:62:35:06:76:68:53:7a:96:f8:cb:7a:28:11:
                    25:50:c3:f7:13:c8:74:8b:26:99:2b:83:88:3a:0b:
                    7f:95:ea:d4:74:de:2f:99:e0:e6:2a:54:ea:01:e8:
                    54:73:a6:bb:72:64:b0:fd:2c:99:c3:1a:e5:c2:a1:
                    09:c7:38:18:c4:d3:c7:1d:19:93:32:e1:df:7e:83:
                    57:e2:dd:f4:9f:1f:c5:e3:5c:c4:ce:e6:fb:7b:6b:
                    43:7a:94:07:21:a5:da:09:7f:a6:bd:73:a4:64:29:
                    1a:d5:2a:e1:ca:2b:b5:c6:df:e5:97:45:3a:b9:a4:
                    ef:e7:2a:ba:fa:e7:89:69:8f:35:a4:c8:4d:70:ce:
                    31:3f:b9:02:f8:c4:75:45:d2:1f:2d:a9:39:1f:9d:
                    1e:62:db:f0:b9:93:81:65:e0:01:dc:0b:01:e6:eb:
                    68:16:17:22:2d:50:89:e3:4d:f1:35:6f:ed:9b:22:
                    c6:8e:87:7b:6b:f0:2e:4a:57:90:58:6a:b5:23:28:
                    9a:78:03:79:88:5d:24:dd:d5:1e:45:36:de:4c:a2:
                    24:6c:f4:cc:24:12:e3:af:a4:90:d7:fe:35:5f:e6:
                    cd:36:5c:1b:a5:c3:f9:52:9d:b9:a3:1e:3b:55:88:
                    6b:e5:d1:81:52:f1:40:97:93:f7:db:64:8d:eb:be:
                    3a:25:73
                Exponent: 65537 (0x10001)
        X509v3 extensions:
            Authority Information Access: 
                CA Issuers - URI:http://root-ca.yijian.com/root-ca.crt
                OCSP - URI:http://ocsp.root-ca.yijian.com:9080

            X509v3 Authority Key Identifier: 
                keyid:73:AA:F3:6A:D8:30:A3:27:B9:59:DE:1F:B7:97:C7:D3:31:6F:27:D7

            X509v3 Basic Constraints: critical
                CA:TRUE, pathlen:0
            X509v3 CRL Distribution Points: 

                Full Name:
                  URI:http://root-ca.yijian.com/root-ca.crl

            X509v3 Extended Key Usage: 
                TLS Web Client Authentication, TLS Web Server Authentication
            X509v3 Key Usage: critical
                Certificate Sign, CRL Sign
            X509v3 Name Constraints: 
                Permitted:
                  DNS:yijian.com
                  DNS:yijian.org
                Excluded:
                  IP:0.0.0.0/0.0.0.0
                  IP:0:0:0:0:0:0:0:0/0:0:0:0:0:0:0:0

            X509v3 Subject Key Identifier: 
                8C:14:69:EB:FF:BA:7E:B7:A7:F6:22:65:D5:35:B2:56:91:93:61:A6
    Signature Algorithm: sha256WithRSAEncryption
         15:53:7c:63:38:21:77:c3:3a:6a:d1:64:f2:07:6b:6b:f1:49:
         2c:75:5d:80:1d:ab:c4:08:54:a8:7b:a1:97:1c:37:18:bb:ee:
         20:2a:1d:50:86:68:bd:00:b5:94:91:fe:a1:7a:89:a9:5f:a9:
         14:76:a2:46:ba:9e:3a:17:d0:72:e5:4f:89:15:07:2c:a1:2c:
         3a:eb:67:5d:54:6d:fb:5d:b9:93:92:d2:d0:cd:84:af:71:0c:
         09:8b:12:c9:13:95:cf:dd:4f:82:61:10:28:db:e3:4e:11:06:
         92:5e:c5:7d:3a:eb:37:86:2c:ea:a2:6a:4e:ce:f1:66:23:ce:
         76:a8:00:1f:85:f5:d5:82:4e:fe:da:d3:8e:de:e2:e8:85:30:
         c6:c8:13:6e:6a:d6:36:6b:71:58:32:b5:7a:a2:a3:eb:23:fc:
         f6:33:39:4b:6f:a2:f9:39:5c:91:0b:56:a0:78:5f:7e:9d:02:
         f3:f2:ce:5e:a4:bd:72:ea:f6:0a:2c:57:b5:58:b3:43:9e:a3:
         d9:1e:74:4f:97:21:e8:55:9b:14:35:74:ec:ee:3e:0f:7b:22:
         ed:40:2c:67:4b:b4:d0:19:ad:5e:ff:a4:d7:e5:ec:5d:35:fc:
         4c:9c:bb:fc:f4:fc:9a:5f:55:e9:ba:1d:0d:46:52:00:4c:3e:
         7f:a1:ad:d9:f0:bb:05:b7:7a:40:6b:d8:37:6e:d1:18:e0:36:
         50:11:ce:c6:1f:18:c0:b7:7c:15:ec:df:f4:37:6b:f8:60:ef:
         d3:85:be:27:ef:9e:39:de:c7:28:2d:aa:59:e6:fb:83:7b:3c:
         2f:f6:4b:fb:c5:5a:61:2f:80:e5:ad:7b:cd:a6:ad:a3:39:4c:
         88:f0:c0:ae:52:23:e0:4c:dd:93:a9:db:2e:d5:ce:aa:0f:c3:
         a3:d5:d0:a3:af:8b:36:2e:68:c3:97:6a:ee:1d:3a:4c:b0:cc:
         67:91:cb:b0:49:67:ea:91:cb:a5:9b:c9:af:47:4c:8f:1c:20:
         44:b6:dd:11:10:b1:cf:8f:c8:99:f6:62:ab:e8:4f:7f:5f:27:
         bf:f3:8c:f8:22:7a:2a:ee:94:df:d6:49:d8:89:90:dc:a1:47:
         fb:0e:68:fd:e0:e3:cf:9c:84:29:9b:d6:d4:04:e7:a8:dc:b6:
         cb:af:7c:ca:63:2e:eb:4a:ac:8e:e2:68:75:c5:3b:f2:85:7f:
         6a:76:10:ee:bc:dd:f4:6f:75:b4:07:42:8d:d7:0f:3d:8f:ee:
         43:3b:92:c4:86:21:23:b0:39:de:a0:ce:9f:89:51:a2:fb:0a:
         4d:8c:d7:96:46:da:df:ff:57:77:e4:91:3d:b6:e0:00:b4:61:
         92:3e:8e:5e:77:f8:c4:1f
-----BEGIN CERTIFICATE-----
MIIGejCCBGKgAwIBAgIRAOuD6h9bvjseS3qMa80qTy4wDQYJKoZIhvcNAQELBQAw
MDELMAkGA1UEBhMCQ04xDzANBgNVBAoMBnlpamlhbjEQMA4GA1UEAwwHUm9vdCBD
QTAeFw0xNzAxMTYwMjIyMDdaFw0yNzAxMTQwMjIyMDdaMC8xCzAJBgNVBAYTAkNO
MQ8wDQYDVQQKDAZ5aWppYW4xDzANBgNVBAMMBlN1YiBDQTCCAiIwDQYJKoZIhvcN
AQEBBQADggIPADCCAgoCggIBAL//sbJkX/gjCmIjmYgu6wxhdPzXfY1uYEr49WIi
nVBeHhy1/epPOBYu6dN0fOgl51ky+KEngyPqq453HGuCAMSrffAdh2vtuLuF+IF5
OVSHigOXWZbdmY9v9zK/9ShxOF8cR1ae6XkIGpu9gSYxJISBdh3c0e33IWdYMPVF
bpx/sF4CpRzcHeVJu7h7oX0VfCdR0CMitGcgDQMjgPeZk3qCu55EaCFmVdV5Bph+
iToP2HrapDa5lAtzTIIZgaCXavsoq8kzMSF7acqzyiGLKBTDdZVzn66NB9nG3xsg
I7pBcYvbSlEr2zOIgnWouVoqbnkABgeOlnxiW32amt22o5ZiNQZ2aFN6lvjLeigR
JVDD9xPIdIsmmSuDiDoLf5Xq1HTeL5ng5ipU6gHoVHOmu3JksP0smcMa5cKhCcc4
GMTTxx0ZkzLh336DV+Ld9J8fxeNcxM7m+3trQ3qUByGl2gl/pr1zpGQpGtUq4cor
tcbf5ZdFOrmk7+cquvrniWmPNaTITXDOMT+5AvjEdUXSHy2pOR+dHmLb8LmTgWXg
AdwLAebraBYXIi1QieNN8TVv7Zsixo6He2vwLkpXkFhqtSMomngDeYhdJN3VHkU2
3kyiJGz0zCQS46+kkNf+NV/mzTZcG6XD+VKduaMeO1WIa+XRgVLxQJeT99tkjeu+
OiVzAgMBAAGjggGOMIIBijByBggrBgEFBQcBAQRmMGQwMQYIKwYBBQUHMAKGJWh0
dHA6Ly9yb290LWNhLnlpamlhbi5jb20vcm9vdC1jYS5jcnQwLwYIKwYBBQUHMAGG
I2h0dHA6Ly9vY3NwLnJvb3QtY2EueWlqaWFuLmNvbTo5MDgwMB8GA1UdIwQYMBaA
FHOq82rYMKMnuVneH7eXx9MxbyfXMBIGA1UdEwEB/wQIMAYBAf8CAQAwNgYDVR0f
BC8wLTAroCmgJ4YlaHR0cDovL3Jvb3QtY2EueWlqaWFuLmNvbS9yb290LWNhLmNy
bDAdBgNVHSUEFjAUBggrBgEFBQcDAgYIKwYBBQUHAwEwDgYDVR0PAQH/BAQDAgEG
MFkGA1UdHgRSMFCgHDAMggp5aWppYW4uY29tMAyCCnlpamlhbi5vcmehMDAKhwgA
AAAAAAAAADAihyAAAAAAAAAAAAAAAAAAAAAAAAAAAAAAAAAAAAAAAAAAADAdBgNV
HQ4EFgQUjBRp6/+6fren9iJl1TWyVpGTYaYwDQYJKoZIhvcNAQELBQADggIBABVT
fGM4IXfDOmrRZPIHa2vxSSx1XYAdq8QIVKh7oZccNxi77iAqHVCGaL0AtZSR/qF6
ialfqRR2oka6njoX0HLlT4kVByyhLDrrZ11UbftduZOS0tDNhK9xDAmLEskTlc/d
T4JhECjb404RBpJexX066zeGLOqiak7O8WYjznaoAB+F9dWCTv7a047e4uiFMMbI
E25q1jZrcVgytXqio+sj/PYzOUtvovk5XJELVqB4X36dAvPyzl6kvXLq9gosV7VY
s0Oeo9kedE+XIehVmxQ1dOzuPg97Iu1ALGdLtNAZrV7/pNfl7F01/Eycu/z0/Jpf
Vem6HQ1GUgBMPn+hrdnwuwW3ekBr2Ddu0RjgNlARzsYfGMC3fBXs3/Q3a/hg79OF
vifvnjnexygtqlnm+4N7PC/2S/vFWmEvgOWte82mraM5TIjwwK5SI+BM3ZOp2y7V
zqoPw6PV0KOvizYuaMOXau4dOkywzGeRy7BJZ+qRy6Wbya9HTI8cIES23REQsc+P
yJn2YqvoT39fJ7/zjPgieirulN/WSdiJkNyhR/sOaP3g48+chCmb1tQE56jctsuv
fMpjLutKrI7iaHXFO/KFf2p2EO683fRvdbQHQo3XDz2P7kM7ksSGISOwOd6gzp+J
UaL7Ck2M15ZG2t//V3fkkT224AC0YZI+jl53+MQf
-----END CERTIFICATE-----
