Certificate:
    Data:
        Version: 3 (0x2)
        Serial Number:
            eb:83:ea:1f:5b:be:3b:1e:4b:7a:8c:6b:cd:2a:4f:2a
    Signature Algorithm: sha256WithRSAEncryption
        Issuer: C=CN, O=yijian, CN=Root CA
        Validity
            Not Before: Jan 15 06:57:38 2017 GMT
            Not After : Jan 13 06:57:38 2027 GMT
        Subject: C=CN, O=yijian, CN=Sub CA
        Subject Public Key Info:
            Public Key Algorithm: rsaEncryption
                Public-Key: (4096 bit)
                Modulus:
                    00:d8:c5:46:93:5c:10:41:15:81:18:6d:d6:8b:f2:
                    bb:7e:63:34:e5:98:71:6f:16:7f:69:b3:e0:2b:02:
                    a7:95:03:73:44:13:bc:36:5e:5f:c4:69:74:c5:e8:
                    03:11:32:8f:b6:2e:a2:d6:ed:ad:13:d9:83:56:86:
                    e0:d8:2e:73:17:10:d4:7f:5c:33:6b:33:4c:c9:fe:
                    30:23:3e:dd:42:a4:65:fd:b3:f6:84:e2:a2:9d:44:
                    51:63:32:64:e7:1d:1b:ca:07:c0:bb:e3:1b:0a:f9:
                    6e:64:df:b7:c4:70:38:d3:5a:25:04:d8:62:b9:25:
                    77:e9:0d:57:e5:e6:32:a9:82:00:fb:cc:14:27:8f:
                    0e:b2:eb:93:ac:b0:f1:9b:b1:f8:e9:9c:07:d2:a2:
                    d8:bc:57:d5:67:88:f0:c8:e5:20:ae:07:51:86:66:
                    60:31:dd:4e:f4:cc:0b:ba:e4:53:7d:73:82:7c:17:
                    18:d0:d8:ef:db:3a:fb:7c:3e:42:eb:05:90:e0:5a:
                    07:2c:b2:1a:4f:11:df:f3:30:5b:d9:aa:e3:cb:d0:
                    12:c5:9c:74:2e:f4:82:58:da:50:44:9d:1c:b8:21:
                    5d:de:8a:4d:62:23:06:b3:fe:77:90:9a:1a:1c:52:
                    e6:46:ad:ac:da:fa:a1:fc:ff:05:a9:dc:c4:2e:67:
                    ba:ca:0d:6c:3b:f9:8f:d6:b8:df:70:84:75:44:a1:
                    33:37:51:db:9b:94:89:cd:27:05:22:fa:2f:dc:ea:
                    81:ce:4c:df:f5:06:f2:95:63:a6:3e:e2:b2:85:1b:
                    f4:00:b7:fc:0c:b5:98:e9:4c:7e:cb:bf:32:ad:dc:
                    24:69:2f:cd:4d:74:5b:08:21:fa:4b:ec:9e:58:92:
                    d7:a3:f0:b9:d2:ee:1c:8b:f3:7d:05:04:04:41:97:
                    a2:5c:79:98:3d:a8:6d:a3:55:3a:e1:58:07:10:f0:
                    4e:a0:c3:cb:60:bd:2b:a3:c9:68:4f:b1:d4:52:5d:
                    11:2c:65:5e:53:1b:70:7e:56:32:41:1c:c2:98:a4:
                    a5:c8:a5:42:aa:89:6d:1b:b6:52:17:3d:cd:78:02:
                    42:67:81:08:44:5a:8a:d5:7d:5c:c3:2f:a3:04:e2:
                    20:f0:b6:63:47:25:21:0c:dc:72:64:01:d1:80:c5:
                    22:9c:ee:49:d4:85:a6:e9:fd:b9:a6:ed:60:a6:ab:
                    89:37:ef:7b:fc:02:a1:29:4e:5f:40:50:ac:94:3c:
                    a7:23:cc:f1:c0:7c:a4:22:8d:e6:60:0c:d9:3b:46:
                    79:d4:94:ec:09:d7:a3:c5:4b:57:30:57:9e:59:63:
                    73:5a:07:99:65:27:a8:c6:c4:ae:19:f1:74:a3:c7:
                    79:90:95
                Exponent: 65537 (0x10001)
        X509v3 extensions:
            Authority Information Access: 
                CA Issuers - URI:http://root-ca.yijian.com/root-ca.crt
                OCSP - URI:http://ocsp.root-ca.yijian.com:9080

            X509v3 Authority Key Identifier: 
                keyid:63:42:24:CB:EF:A3:69:6A:B1:74:D9:8E:44:3E:1F:32:EA:05:58:64

            X509v3 Basic Constraints: critical
                CA:TRUE, pathlen:0
            X509v3 CRL Distribution Points: 

                Full Name:
                  URI:http://root-ca.yijian.com/root-ca.crl

            X509v3 Extended Key Usage: 
                TLS Web Client Authentication, TLS Web Server Authentication
            X509v3 Key Usage: critical
                Certificate Sign, CRL Sign
            X509v3 Name Constraints: 
                Permitted:
                  DNS:yijian.com
                  DNS:yijian.org
                Excluded:
                  IP:0.0.0.0/0.0.0.0
                  IP:0.0.0.0/0.0.0.0

            X509v3 Subject Key Identifier: 
                D8:6F:AE:7C:4B:E4:0D:40:22:A5:E1:CB:AD:E2:C2:73:4E:4E:C8:C7
    Signature Algorithm: sha256WithRSAEncryption
         36:4e:8c:5b:88:19:ed:5e:c5:03:ed:b9:57:f7:0e:22:52:08:
         09:bc:19:d3:2d:78:3c:a7:ff:ea:cf:26:fd:55:59:19:ff:f0:
         0a:69:59:25:ff:6c:1a:eb:1c:0d:8a:f4:83:fb:c8:32:7d:32:
         d0:4f:5b:8f:70:3d:11:a1:67:91:db:ea:f6:a9:73:96:ee:1e:
         82:b3:a1:91:b0:9a:ec:69:ba:65:cb:58:f9:0f:75:3d:d6:53:
         50:05:e3:0d:6c:e4:85:01:a0:3d:95:61:2b:87:44:35:0f:e1:
         91:e8:3d:44:bd:8f:cd:e6:0b:c4:ca:03:76:60:15:d1:b6:2c:
         78:56:a1:cb:40:62:4b:3d:24:5a:c8:6b:93:c6:45:1e:04:0c:
         f2:90:83:f8:82:2e:60:3b:24:78:d2:86:18:05:e6:99:61:e8:
         1e:b8:53:de:8f:13:5f:e7:1b:57:86:60:50:f1:6c:ef:b6:1e:
         15:98:76:3a:b5:0b:be:b3:17:5d:3c:35:5d:82:d0:61:07:7f:
         60:17:16:25:c2:91:f8:fb:16:b6:07:a5:d5:77:d6:88:f1:1b:
         7b:0b:af:03:82:64:18:98:75:78:a1:da:02:c7:06:61:f0:89:
         83:68:25:45:a1:c7:d1:93:d4:6c:5e:89:25:83:ab:ae:51:c5:
         1e:e1:74:e0:13:99:03:b2:17:a9:e9:4a:aa:b3:8a:4a:a3:f4:
         65:99:f2:69:ca:d6:5c:fd:b1:0f:ea:f3:e9:0b:74:0f:73:ff:
         b2:5a:d8:b5:93:52:75:4b:36:8e:a3:c9:55:fd:63:30:18:c9:
         71:9d:48:97:c9:b3:97:1d:e0:c4:34:51:a2:ce:83:92:a5:59:
         cc:d7:b8:20:45:57:80:75:22:26:1c:c9:9c:08:d0:a8:1b:1b:
         a0:b0:90:9d:21:9c:2e:a6:ed:d7:c7:65:2e:36:51:49:f7:1e:
         e9:12:8b:d6:51:f8:e6:86:b7:55:9f:82:be:b5:6b:cc:bc:38:
         b1:63:f5:ec:a6:02:df:65:fa:13:88:fe:27:dc:e4:bb:3e:b8:
         fd:45:4c:5c:04:9b:9a:66:83:ae:a5:28:e6:9c:d5:3f:7e:d2:
         61:7c:7f:3f:00:f9:c8:d1:f5:fe:1a:fa:f3:33:81:ca:94:b4:
         b2:82:51:c4:b9:83:ca:8d:07:a0:8f:c7:f5:25:5a:13:23:60:
         64:e1:fc:23:54:1b:6d:aa:aa:c2:65:8f:86:ad:b9:1f:6b:50:
         09:26:9d:2f:82:9a:a0:a6:77:c5:e8:a1:a3:9b:81:88:0c:53:
         cf:93:46:d1:a9:45:16:5c:20:1e:f6:c9:e3:02:93:e7:b8:3a:
         0b:6c:71:9b:8f:96:5a:b5
-----BEGIN CERTIFICATE-----
MIIGYjCCBEqgAwIBAgIRAOuD6h9bvjseS3qMa80qTyowDQYJKoZIhvcNAQELBQAw
MDELMAkGA1UEBhMCQ04xDzANBgNVBAoMBnlpamlhbjEQMA4GA1UEAwwHUm9vdCBD
QTAeFw0xNzAxMTUwNjU3MzhaFw0yNzAxMTMwNjU3MzhaMC8xCzAJBgNVBAYTAkNO
MQ8wDQYDVQQKDAZ5aWppYW4xDzANBgNVBAMMBlN1YiBDQTCCAiIwDQYJKoZIhvcN
AQEBBQADggIPADCCAgoCggIBANjFRpNcEEEVgRht1ovyu35jNOWYcW8Wf2mz4CsC
p5UDc0QTvDZeX8RpdMXoAxEyj7YuotbtrRPZg1aG4NgucxcQ1H9cM2szTMn+MCM+
3UKkZf2z9oTiop1EUWMyZOcdG8oHwLvjGwr5bmTft8RwONNaJQTYYrkld+kNV+Xm
MqmCAPvMFCePDrLrk6yw8Zux+OmcB9Ki2LxX1WeI8MjlIK4HUYZmYDHdTvTMC7rk
U31zgnwXGNDY79s6+3w+QusFkOBaByyyGk8R3/MwW9mq48vQEsWcdC70gljaUESd
HLghXd6KTWIjBrP+d5CaGhxS5katrNr6ofz/BancxC5nusoNbDv5j9a433CEdUSh
MzdR25uUic0nBSL6L9zqgc5M3/UG8pVjpj7isoUb9AC3/Ay1mOlMfsu/Mq3cJGkv
zU10Wwgh+kvsnliS16PwudLuHIvzfQUEBEGXolx5mD2obaNVOuFYBxDwTqDDy2C9
K6PJaE+x1FJdESxlXlMbcH5WMkEcwpikpcilQqqJbRu2Uhc9zXgCQmeBCERaitV9
XMMvowTiIPC2Y0clIQzccmQB0YDFIpzuSdSFpun9uabtYKariTfve/wCoSlOX0BQ
rJQ8pyPM8cB8pCKN5mAM2TtGedSU7AnXo8VLVzBXnlljc1oHmWUnqMbErhnxdKPH
eZCVAgMBAAGjggF2MIIBcjByBggrBgEFBQcBAQRmMGQwMQYIKwYBBQUHMAKGJWh0
dHA6Ly9yb290LWNhLnlpamlhbi5jb20vcm9vdC1jYS5jcnQwLwYIKwYBBQUHMAGG
I2h0dHA6Ly9vY3NwLnJvb3QtY2EueWlqaWFuLmNvbTo5MDgwMB8GA1UdIwQYMBaA
FGNCJMvvo2lqsXTZjkQ+HzLqBVhkMBIGA1UdEwEB/wQIMAYBAf8CAQAwNgYDVR0f
BC8wLTAroCmgJ4YlaHR0cDovL3Jvb3QtY2EueWlqaWFuLmNvbS9yb290LWNhLmNy
bDAdBgNVHSUEFjAUBggrBgEFBQcDAgYIKwYBBQUHAwEwDgYDVR0PAQH/BAQDAgEG
MEEGA1UdHgQ6MDigHDAMggp5aWppYW4uY29tMAyCCnlpamlhbi5vcmehGDAKhwgA
AAAAAAAAADAKhwgAAAAAAAAAADAdBgNVHQ4EFgQU2G+ufEvkDUAipeHLreLCc05O
yMcwDQYJKoZIhvcNAQELBQADggIBADZOjFuIGe1exQPtuVf3DiJSCAm8GdMteDyn
/+rPJv1VWRn/8AppWSX/bBrrHA2K9IP7yDJ9MtBPW49wPRGhZ5Hb6vapc5buHoKz
oZGwmuxpumXLWPkPdT3WU1AF4w1s5IUBoD2VYSuHRDUP4ZHoPUS9j83mC8TKA3Zg
FdG2LHhWoctAYks9JFrIa5PGRR4EDPKQg/iCLmA7JHjShhgF5plh6B64U96PE1/n
G1eGYFDxbO+2HhWYdjq1C76zF108NV2C0GEHf2AXFiXCkfj7FrYHpdV31ojxG3sL
rwOCZBiYdXih2gLHBmHwiYNoJUWhx9GT1GxeiSWDq65RxR7hdOATmQOyF6npSqqz
ikqj9GWZ8mnK1lz9sQ/q8+kLdA9z/7Ja2LWTUnVLNo6jyVX9YzAYyXGdSJfJs5cd
4MQ0UaLOg5KlWczXuCBFV4B1IiYcyZwI0KgbG6CwkJ0hnC6m7dfHZS42UUn3HukS
i9ZR+OaGt1Wfgr61a8y8OLFj9eymAt9l+hOI/ifc5Ls+uP1FTFwEm5pmg66lKOac
1T9+0mF8fz8A+cjR9f4a+vMzgcqUtLKCUcS5g8qNB6CPx/UlWhMjYGTh/CNUG22q
qsJlj4atuR9rUAkmnS+CmqCmd8XooaObgYgMU8+TRtGpRRZcIB72yeMCk+e4Ogts
cZuPllq1
-----END CERTIFICATE-----
