Certificate:
    Data:
        Version: 3 (0x2)
        Serial Number:
            eb:83:ea:1f:5b:be:3b:1e:4b:7a:8c:6b:cd:2a:4f:2d
    Signature Algorithm: sha256WithRSAEncryption
        Issuer: C=CN, O=yijian, CN=Root CA
        Validity
            Not Before: Jan 16 02:02:22 2017 GMT
            Not After : Jan 14 02:02:22 2027 GMT
        Subject: C=CN, O=yijian, CN=Sub CA
        Subject Public Key Info:
            Public Key Algorithm: rsaEncryption
                Public-Key: (4096 bit)
                Modulus:
                    00:bf:ff:b1:b2:64:5f:f8:23:0a:62:23:99:88:2e:
                    eb:0c:61:74:fc:d7:7d:8d:6e:60:4a:f8:f5:62:22:
                    9d:50:5e:1e:1c:b5:fd:ea:4f:38:16:2e:e9:d3:74:
                    7c:e8:25:e7:59:32:f8:a1:27:83:23:ea:ab:8e:77:
                    1c:6b:82:00:c4:ab:7d:f0:1d:87:6b:ed:b8:bb:85:
                    f8:81:79:39:54:87:8a:03:97:59:96:dd:99:8f:6f:
                    f7:32:bf:f5:28:71:38:5f:1c:47:56:9e:e9:79:08:
                    1a:9b:bd:81:26:31:24:84:81:76:1d:dc:d1:ed:f7:
                    21:67:58:30:f5:45:6e:9c:7f:b0:5e:02:a5:1c:dc:
                    1d:e5:49:bb:b8:7b:a1:7d:15:7c:27:51:d0:23:22:
                    b4:67:20:0d:03:23:80:f7:99:93:7a:82:bb:9e:44:
                    68:21:66:55:d5:79:06:98:7e:89:3a:0f:d8:7a:da:
                    a4:36:b9:94:0b:73:4c:82:19:81:a0:97:6a:fb:28:
                    ab:c9:33:31:21:7b:69:ca:b3:ca:21:8b:28:14:c3:
                    75:95:73:9f:ae:8d:07:d9:c6:df:1b:20:23:ba:41:
                    71:8b:db:4a:51:2b:db:33:88:82:75:a8:b9:5a:2a:
                    6e:79:00:06:07:8e:96:7c:62:5b:7d:9a:9a:dd:b6:
                    a3:96:62:35:06:76:68:53:7a:96:f8:cb:7a:28:11:
                    25:50:c3:f7:13:c8:74:8b:26:99:2b:83:88:3a:0b:
                    7f:95:ea:d4:74:de:2f:99:e0:e6:2a:54:ea:01:e8:
                    54:73:a6:bb:72:64:b0:fd:2c:99:c3:1a:e5:c2:a1:
                    09:c7:38:18:c4:d3:c7:1d:19:93:32:e1:df:7e:83:
                    57:e2:dd:f4:9f:1f:c5:e3:5c:c4:ce:e6:fb:7b:6b:
                    43:7a:94:07:21:a5:da:09:7f:a6:bd:73:a4:64:29:
                    1a:d5:2a:e1:ca:2b:b5:c6:df:e5:97:45:3a:b9:a4:
                    ef:e7:2a:ba:fa:e7:89:69:8f:35:a4:c8:4d:70:ce:
                    31:3f:b9:02:f8:c4:75:45:d2:1f:2d:a9:39:1f:9d:
                    1e:62:db:f0:b9:93:81:65:e0:01:dc:0b:01:e6:eb:
                    68:16:17:22:2d:50:89:e3:4d:f1:35:6f:ed:9b:22:
                    c6:8e:87:7b:6b:f0:2e:4a:57:90:58:6a:b5:23:28:
                    9a:78:03:79:88:5d:24:dd:d5:1e:45:36:de:4c:a2:
                    24:6c:f4:cc:24:12:e3:af:a4:90:d7:fe:35:5f:e6:
                    cd:36:5c:1b:a5:c3:f9:52:9d:b9:a3:1e:3b:55:88:
                    6b:e5:d1:81:52:f1:40:97:93:f7:db:64:8d:eb:be:
                    3a:25:73
                Exponent: 65537 (0x10001)
        X509v3 extensions:
            Authority Information Access: 
                CA Issuers - URI:http://root-ca.yijian.com/root-ca.crt
                OCSP - URI:http://ocsp.root-ca.yijian.com:9080

            X509v3 Authority Key Identifier: 
                keyid:73:AA:F3:6A:D8:30:A3:27:B9:59:DE:1F:B7:97:C7:D3:31:6F:27:D7

            X509v3 Basic Constraints: critical
                CA:TRUE, pathlen:0
            X509v3 CRL Distribution Points: 

                Full Name:
                  URI:http://root-ca.yijian.com/root-ca.crl

            X509v3 Extended Key Usage: 
                TLS Web Client Authentication, TLS Web Server Authentication
            X509v3 Key Usage: critical
                Certificate Sign, CRL Sign
            X509v3 Name Constraints: 
                Permitted:
                  DNS:yijian.com
                  DNS:yijian.org
                Excluded:
                  IP:0.0.0.0/0.0.0.0
                  IP:0:0:0:0:0:0:0:0/0:0:0:0:0:0:0:0

            X509v3 Subject Key Identifier: 
                8C:14:69:EB:FF:BA:7E:B7:A7:F6:22:65:D5:35:B2:56:91:93:61:A6
    Signature Algorithm: sha256WithRSAEncryption
         c5:39:be:80:53:f3:22:8a:98:d2:8b:3e:c3:00:96:e6:00:43:
         55:b6:22:e0:81:0f:a8:9a:ae:08:e6:5f:1c:fb:6d:70:59:a9:
         8c:a3:19:ee:bb:a1:1f:bf:fd:88:0e:39:4a:98:f3:5f:63:49:
         7b:30:e5:b9:7b:58:61:57:57:55:79:47:c1:2b:e7:3e:ad:76:
         72:e8:02:9f:c3:07:07:c6:49:f6:dc:55:dd:e8:2a:53:35:af:
         56:1e:29:a1:16:d5:fc:ac:67:fd:20:77:18:05:d9:ec:89:80:
         ee:34:c6:da:ed:18:1c:bd:97:d1:3e:d1:16:bc:b6:35:55:85:
         9a:55:9b:cc:90:0a:47:e2:16:d8:24:df:9a:b6:d4:c3:30:70:
         1a:3b:21:2c:db:3f:9d:3b:92:bf:04:6b:4d:61:75:64:ec:3a:
         46:71:fe:d2:ba:5d:83:e5:9f:89:0d:70:4f:8c:f8:69:af:64:
         33:51:f0:87:35:a4:ef:c5:91:51:fa:13:e5:98:1a:53:41:0a:
         7e:de:68:d2:b6:61:7d:07:3b:cb:97:cd:f7:ae:60:14:d5:71:
         2e:37:ab:7e:c0:ce:37:39:85:62:5b:f6:ad:66:d9:fe:49:6c:
         7c:04:b9:fc:3e:ed:76:fe:0c:89:de:e2:df:06:94:c1:b6:37:
         b0:8b:80:3f:99:f5:56:2c:bc:40:04:d2:90:87:46:d7:af:14:
         6d:26:10:11:43:ac:87:a4:a7:4d:b1:13:0b:f2:e7:ad:07:40:
         90:0d:4b:bd:0c:97:6b:b5:24:7a:3a:d6:7f:95:62:d5:94:54:
         66:27:3d:39:eb:74:6e:d2:c7:67:11:9b:43:ec:f7:18:56:01:
         e1:67:3a:44:c9:52:ab:15:8f:75:25:fc:07:93:ba:e2:43:5c:
         fc:8a:1f:02:23:c0:14:46:3b:38:66:b6:d4:e4:df:53:5b:87:
         ec:b9:eb:70:a2:69:17:bb:88:22:3b:79:8b:ab:65:34:19:05:
         a8:53:6d:5c:3b:a8:bb:b9:73:9f:78:ba:78:87:fe:a0:f6:d2:
         8d:79:7e:b7:de:ef:02:34:79:9c:cc:b3:db:50:0c:d3:31:29:
         51:f2:ee:39:a5:96:c5:85:ef:7a:cf:65:18:80:af:18:6b:5d:
         10:9e:58:7a:9f:ce:e5:69:72:58:7d:87:5c:33:81:4f:12:e6:
         1f:76:e9:40:15:76:cb:38:0d:0c:f9:f3:b9:83:c6:d8:3d:cd:
         57:ed:45:f9:db:65:5b:fc:0f:db:9f:ad:bd:5b:71:4a:7a:87:
         42:ae:61:36:5d:0d:08:db:9a:9a:a7:bf:59:c9:6e:96:99:df:
         14:d1:69:8b:af:09:b3:87
-----BEGIN CERTIFICATE-----
MIIGejCCBGKgAwIBAgIRAOuD6h9bvjseS3qMa80qTy0wDQYJKoZIhvcNAQELBQAw
MDELMAkGA1UEBhMCQ04xDzANBgNVBAoMBnlpamlhbjEQMA4GA1UEAwwHUm9vdCBD
QTAeFw0xNzAxMTYwMjAyMjJaFw0yNzAxMTQwMjAyMjJaMC8xCzAJBgNVBAYTAkNO
MQ8wDQYDVQQKDAZ5aWppYW4xDzANBgNVBAMMBlN1YiBDQTCCAiIwDQYJKoZIhvcN
AQEBBQADggIPADCCAgoCggIBAL//sbJkX/gjCmIjmYgu6wxhdPzXfY1uYEr49WIi
nVBeHhy1/epPOBYu6dN0fOgl51ky+KEngyPqq453HGuCAMSrffAdh2vtuLuF+IF5
OVSHigOXWZbdmY9v9zK/9ShxOF8cR1ae6XkIGpu9gSYxJISBdh3c0e33IWdYMPVF
bpx/sF4CpRzcHeVJu7h7oX0VfCdR0CMitGcgDQMjgPeZk3qCu55EaCFmVdV5Bph+
iToP2HrapDa5lAtzTIIZgaCXavsoq8kzMSF7acqzyiGLKBTDdZVzn66NB9nG3xsg
I7pBcYvbSlEr2zOIgnWouVoqbnkABgeOlnxiW32amt22o5ZiNQZ2aFN6lvjLeigR
JVDD9xPIdIsmmSuDiDoLf5Xq1HTeL5ng5ipU6gHoVHOmu3JksP0smcMa5cKhCcc4
GMTTxx0ZkzLh336DV+Ld9J8fxeNcxM7m+3trQ3qUByGl2gl/pr1zpGQpGtUq4cor
tcbf5ZdFOrmk7+cquvrniWmPNaTITXDOMT+5AvjEdUXSHy2pOR+dHmLb8LmTgWXg
AdwLAebraBYXIi1QieNN8TVv7Zsixo6He2vwLkpXkFhqtSMomngDeYhdJN3VHkU2
3kyiJGz0zCQS46+kkNf+NV/mzTZcG6XD+VKduaMeO1WIa+XRgVLxQJeT99tkjeu+
OiVzAgMBAAGjggGOMIIBijByBggrBgEFBQcBAQRmMGQwMQYIKwYBBQUHMAKGJWh0
dHA6Ly9yb290LWNhLnlpamlhbi5jb20vcm9vdC1jYS5jcnQwLwYIKwYBBQUHMAGG
I2h0dHA6Ly9vY3NwLnJvb3QtY2EueWlqaWFuLmNvbTo5MDgwMB8GA1UdIwQYMBaA
FHOq82rYMKMnuVneH7eXx9MxbyfXMBIGA1UdEwEB/wQIMAYBAf8CAQAwNgYDVR0f
BC8wLTAroCmgJ4YlaHR0cDovL3Jvb3QtY2EueWlqaWFuLmNvbS9yb290LWNhLmNy
bDAdBgNVHSUEFjAUBggrBgEFBQcDAgYIKwYBBQUHAwEwDgYDVR0PAQH/BAQDAgEG
MFkGA1UdHgRSMFCgHDAMggp5aWppYW4uY29tMAyCCnlpamlhbi5vcmehMDAKhwgA
AAAAAAAAADAihyAAAAAAAAAAAAAAAAAAAAAAAAAAAAAAAAAAAAAAAAAAADAdBgNV
HQ4EFgQUjBRp6/+6fren9iJl1TWyVpGTYaYwDQYJKoZIhvcNAQELBQADggIBAMU5
voBT8yKKmNKLPsMAluYAQ1W2IuCBD6iargjmXxz7bXBZqYyjGe67oR+//YgOOUqY
819jSXsw5bl7WGFXV1V5R8Er5z6tdnLoAp/DBwfGSfbcVd3oKlM1r1YeKaEW1fys
Z/0gdxgF2eyJgO40xtrtGBy9l9E+0Ra8tjVVhZpVm8yQCkfiFtgk35q21MMwcBo7
ISzbP507kr8Ea01hdWTsOkZx/tK6XYPln4kNcE+M+GmvZDNR8Ic1pO/FkVH6E+WY
GlNBCn7eaNK2YX0HO8uXzfeuYBTVcS43q37Azjc5hWJb9q1m2f5JbHwEufw+7Xb+
DIne4t8GlMG2N7CLgD+Z9VYsvEAE0pCHRtevFG0mEBFDrIekp02xEwvy560HQJAN
S70Ml2u1JHo61n+VYtWUVGYnPTnrdG7Sx2cRm0Ps9xhWAeFnOkTJUqsVj3Ul/AeT
uuJDXPyKHwIjwBRGOzhmttTk31Nbh+y563CiaRe7iCI7eYurZTQZBahTbVw7qLu5
c594uniH/qD20o15frfe7wI0eZzMs9tQDNMxKVHy7jmllsWF73rPZRiArxhrXRCe
WHqfzuVpclh9h1wzgU8S5h926UAVdss4DQz587mDxtg9zVftRfnbZVv8D9ufrb1b
cUp6h0KuYTZdDQjbmpqnv1nJbpaZ3xTRaYuvCbOH
-----END CERTIFICATE-----
