Certificate:
    Data:
        Version: 3 (0x2)
        Serial Number:
            eb:83:ea:1f:5b:be:3b:1e:4b:7a:8c:6b:cd:2a:4f:2c
    Signature Algorithm: sha256WithRSAEncryption
        Issuer: C=CN, O=yijian, CN=Root CA
        Validity
            Not Before: Jan 16 01:47:35 2017 GMT
            Not After : Jan 14 01:47:35 2027 GMT
        Subject: C=CN, O=yijian, CN=Root CA
        Subject Public Key Info:
            Public Key Algorithm: rsaEncryption
                Public-Key: (4096 bit)
                Modulus:
                    00:ca:41:7c:5e:e0:64:41:7b:30:60:50:be:04:9d:
                    1a:2e:51:12:d4:96:ad:8e:83:ae:31:e6:a0:00:aa:
                    2f:5c:4f:32:99:e2:5a:4a:ba:12:35:46:b7:cf:ee:
                    f3:d7:ad:5e:65:79:01:f6:43:37:b1:f3:56:2c:82:
                    1e:a4:f6:e9:65:30:cd:18:7e:8e:de:22:07:7d:8d:
                    94:07:05:3c:83:ee:c2:02:26:46:70:c2:3e:36:6b:
                    34:e1:18:ee:86:67:9d:5f:6f:a7:e6:2d:41:7d:17:
                    50:39:d1:34:a6:4d:c5:ce:44:cf:30:db:d0:49:5e:
                    e0:03:1c:36:26:34:cb:38:8c:12:88:69:75:bf:ed:
                    55:82:c4:0e:ac:db:ba:13:1e:3f:34:ad:b4:ea:ba:
                    d2:69:3d:3b:ff:35:a9:8d:3d:96:9c:84:10:14:a9:
                    de:6b:2d:64:f0:42:66:0b:a2:32:c9:df:99:c5:50:
                    6b:d0:ab:72:da:05:1e:5b:18:c8:4c:37:c5:cc:7b:
                    bc:01:f6:47:3d:3e:e5:22:44:e7:7d:33:58:80:6d:
                    62:20:3f:f5:1f:83:ce:63:8c:1d:2a:1b:2f:ef:89:
                    40:6d:cf:bf:e0:03:5d:ba:25:49:4a:71:c1:b1:9c:
                    91:6f:cd:3f:14:b2:39:74:4c:05:63:b8:c0:4c:12:
                    b6:4a:e2:84:66:45:35:fe:cc:8a:8e:45:b1:5f:0b:
                    86:ad:b3:d2:d5:12:39:29:e9:68:cc:1f:69:38:e2:
                    3f:0d:89:cf:0d:f3:29:d1:fd:ea:30:70:7f:10:eb:
                    95:1f:53:d2:77:97:0b:cc:36:ad:49:6d:84:3a:cd:
                    7f:0c:26:f0:2a:aa:32:10:ab:42:37:18:4e:2f:7d:
                    a3:01:cf:ad:65:e6:bf:07:da:99:57:a6:10:b5:90:
                    e9:4a:71:bc:1d:00:d5:8e:00:86:a6:00:93:77:c2:
                    4e:66:ce:f0:ed:3b:07:d1:66:90:cc:35:51:8a:bc:
                    99:59:da:18:31:15:41:86:6a:d1:ca:69:16:9e:fb:
                    00:06:00:c4:32:2a:32:72:04:59:2d:d0:63:67:68:
                    39:24:4e:e9:1d:db:2a:65:1b:06:f2:f0:a8:73:59:
                    68:57:47:59:2a:0b:cb:18:50:c9:cb:c7:31:1e:ac:
                    a0:a4:08:b4:d0:5e:66:d8:d2:f2:f9:18:5f:21:b8:
                    38:1f:80:be:7e:3b:c2:8c:0b:bd:09:ae:5a:77:a0:
                    29:f8:6e:23:bb:73:02:3a:56:d3:52:05:00:e8:c9:
                    3e:63:dd:0a:3d:83:60:a1:e9:38:22:98:2f:92:ee:
                    d0:57:b5:1a:ee:c9:75:76:b7:5c:53:13:53:71:f0:
                    74:a8:89
                Exponent: 65537 (0x10001)
        X509v3 extensions:
            X509v3 Basic Constraints: critical
                CA:TRUE
            X509v3 Key Usage: critical
                Certificate Sign, CRL Sign
            X509v3 Subject Key Identifier: 
                73:AA:F3:6A:D8:30:A3:27:B9:59:DE:1F:B7:97:C7:D3:31:6F:27:D7
    Signature Algorithm: sha256WithRSAEncryption
         c3:a8:61:05:e0:23:a4:0c:f8:e5:f8:31:28:48:fd:aa:64:13:
         e2:fc:43:55:e2:17:dc:dd:cc:86:95:23:b8:cd:6d:b1:7a:11:
         d8:aa:05:7e:49:57:07:68:b9:cc:f8:ec:d1:10:78:08:10:2f:
         f5:d9:40:a3:eb:98:bb:b8:51:c9:eb:fe:97:7a:86:43:78:e8:
         a0:63:90:7a:66:3a:ef:64:68:6d:90:81:b4:5c:be:8f:e9:38:
         7b:3f:aa:8f:fe:cf:ac:c9:20:09:4e:e2:e6:72:a8:e3:2e:cf:
         dc:5f:4e:67:11:9f:8a:6a:c7:8b:21:d5:1f:5f:3f:09:bc:7c:
         5c:a2:b5:0b:eb:7e:b5:47:ca:1f:27:1e:23:ee:55:f9:00:cb:
         22:5d:6b:d4:1e:4f:c3:c4:52:fb:b0:36:e2:d5:7d:78:26:0b:
         de:7c:0e:23:38:73:6e:7c:26:30:f0:eb:ff:2c:a7:b2:a5:6d:
         58:4f:1b:ac:43:aa:b0:a3:76:7f:63:5f:8e:60:88:91:b2:c4:
         b6:6b:6b:9d:69:be:4e:2d:44:f8:ff:57:a3:12:4a:5a:3d:44:
         71:05:8c:4f:0a:8a:58:6d:06:79:e4:bd:39:e1:ad:af:47:7f:
         b2:a7:68:d8:89:aa:26:64:b6:f4:4c:de:c1:52:47:c2:65:32:
         30:15:4d:04:eb:5f:10:1f:ff:b2:bf:09:3b:d6:d4:ee:6a:b4:
         0d:8c:74:a0:dd:45:55:ed:55:14:a0:91:87:bd:c8:94:87:8e:
         f5:ab:aa:06:96:20:c3:72:f0:8b:57:30:ee:39:b9:f4:b1:4c:
         ff:ac:79:e5:24:93:47:32:d9:58:fa:39:9a:44:09:a8:d1:f8:
         20:48:3d:dc:27:75:3c:b0:f1:61:98:53:ea:74:a5:b0:c9:e0:
         82:97:f4:9e:ee:bd:ac:9c:d6:6d:5b:e5:c4:c7:66:72:00:df:
         02:43:0e:32:50:3c:f4:c5:b6:a3:06:25:31:15:83:5b:ba:f3:
         0b:9c:51:39:1f:2c:b6:b1:e0:0d:c4:f7:43:92:93:95:ab:18:
         e5:ad:2b:d1:1f:8e:5f:0a:0d:0d:2f:aa:c8:3a:28:bc:be:a8:
         3a:ff:52:2d:db:83:07:12:12:be:b0:a5:50:ed:d7:67:eb:4e:
         0e:b0:25:17:9c:38:1c:15:ac:b3:07:ec:27:ff:6b:5f:1a:2c:
         9e:28:8d:ec:5e:01:cb:64:4f:9e:4d:f7:80:c8:68:51:52:a5:
         bd:1c:44:3f:1f:5a:e1:0b:78:aa:b6:3e:54:b4:8d:02:4c:25:
         a3:5e:b6:3c:b9:ce:d5:5a:1f:e4:bf:1a:e9:b0:9a:96:81:cb:
         f1:8a:53:5f:04:cb:64:b5
-----BEGIN CERTIFICATE-----
MIIFLTCCAxWgAwIBAgIRAOuD6h9bvjseS3qMa80qTywwDQYJKoZIhvcNAQELBQAw
MDELMAkGA1UEBhMCQ04xDzANBgNVBAoMBnlpamlhbjEQMA4GA1UEAwwHUm9vdCBD
QTAeFw0xNzAxMTYwMTQ3MzVaFw0yNzAxMTQwMTQ3MzVaMDAxCzAJBgNVBAYTAkNO
MQ8wDQYDVQQKDAZ5aWppYW4xEDAOBgNVBAMMB1Jvb3QgQ0EwggIiMA0GCSqGSIb3
DQEBAQUAA4ICDwAwggIKAoICAQDKQXxe4GRBezBgUL4EnRouURLUlq2Og64x5qAA
qi9cTzKZ4lpKuhI1RrfP7vPXrV5leQH2Qzex81Ysgh6k9ullMM0Yfo7eIgd9jZQH
BTyD7sICJkZwwj42azThGO6GZ51fb6fmLUF9F1A50TSmTcXORM8w29BJXuADHDYm
NMs4jBKIaXW/7VWCxA6s27oTHj80rbTqutJpPTv/NamNPZachBAUqd5rLWTwQmYL
ojLJ35nFUGvQq3LaBR5bGMhMN8XMe7wB9kc9PuUiROd9M1iAbWIgP/Ufg85jjB0q
Gy/viUBtz7/gA126JUlKccGxnJFvzT8Usjl0TAVjuMBMErZK4oRmRTX+zIqORbFf
C4ats9LVEjkp6WjMH2k44j8Nic8N8ynR/eowcH8Q65UfU9J3lwvMNq1JbYQ6zX8M
JvAqqjIQq0I3GE4vfaMBz61l5r8H2plXphC1kOlKcbwdANWOAIamAJN3wk5mzvDt
OwfRZpDMNVGKvJlZ2hgxFUGGatHKaRae+wAGAMQyKjJyBFkt0GNnaDkkTukd2ypl
Gwby8KhzWWhXR1kqC8sYUMnLxzEerKCkCLTQXmbY0vL5GF8huDgfgL5+O8KMC70J
rlp3oCn4biO7cwI6VtNSBQDoyT5j3Qo9g2Ch6TgimC+S7tBXtRruyXV2t1xTE1Nx
8HSoiQIDAQABo0IwQDAPBgNVHRMBAf8EBTADAQH/MA4GA1UdDwEB/wQEAwIBBjAd
BgNVHQ4EFgQUc6rzatgwoye5Wd4ft5fH0zFvJ9cwDQYJKoZIhvcNAQELBQADggIB
AMOoYQXgI6QM+OX4MShI/apkE+L8Q1XiF9zdzIaVI7jNbbF6EdiqBX5JVwdoucz4
7NEQeAgQL/XZQKPrmLu4Ucnr/pd6hkN46KBjkHpmOu9kaG2QgbRcvo/pOHs/qo/+
z6zJIAlO4uZyqOMuz9xfTmcRn4pqx4sh1R9fPwm8fFyitQvrfrVHyh8nHiPuVfkA
yyJda9QeT8PEUvuwNuLVfXgmC958DiM4c258JjDw6/8sp7KlbVhPG6xDqrCjdn9j
X45giJGyxLZra51pvk4tRPj/V6MSSlo9RHEFjE8KilhtBnnkvTnhra9Hf7KnaNiJ
qiZktvRM3sFSR8JlMjAVTQTrXxAf/7K/CTvW1O5qtA2MdKDdRVXtVRSgkYe9yJSH
jvWrqgaWIMNy8ItXMO45ufSxTP+seeUkk0cy2Vj6OZpECajR+CBIPdwndTyw8WGY
U+p0pbDJ4IKX9J7uvayc1m1b5cTHZnIA3wJDDjJQPPTFtqMGJTEVg1u68wucUTkf
LLax4A3E90OSk5WrGOWtK9Efjl8KDQ0vqsg6KLy+qDr/Ui3bgwcSEr6wpVDt12fr
Tg6wJRecOBwVrLMH7Cf/a18aLJ4ojexeActkT55N94DIaFFSpb0cRD8fWuELeKq2
PlS0jQJMJaNetjy5ztVaH+S/GumwmpaBy/GKU18Ey2S1
-----END CERTIFICATE-----
