Certificate:
    Data:
        Version: 3 (0x2)
        Serial Number:
            eb:83:ea:1f:5b:be:3b:1e:4b:7a:8c:6b:cd:2a:4f:2f
    Signature Algorithm: sha256WithRSAEncryption
        Issuer: C=CN, O=yijian, CN=Root CA
        Validity
            Not Before: Jan 16 02:25:40 2017 GMT
            Not After : Jan 14 02:25:40 2027 GMT
        Subject: C=CN, O=yijian, CN=Sub CA
        Subject Public Key Info:
            Public Key Algorithm: rsaEncryption
                Public-Key: (4096 bit)
                Modulus:
                    00:bf:ff:b1:b2:64:5f:f8:23:0a:62:23:99:88:2e:
                    eb:0c:61:74:fc:d7:7d:8d:6e:60:4a:f8:f5:62:22:
                    9d:50:5e:1e:1c:b5:fd:ea:4f:38:16:2e:e9:d3:74:
                    7c:e8:25:e7:59:32:f8:a1:27:83:23:ea:ab:8e:77:
                    1c:6b:82:00:c4:ab:7d:f0:1d:87:6b:ed:b8:bb:85:
                    f8:81:79:39:54:87:8a:03:97:59:96:dd:99:8f:6f:
                    f7:32:bf:f5:28:71:38:5f:1c:47:56:9e:e9:79:08:
                    1a:9b:bd:81:26:31:24:84:81:76:1d:dc:d1:ed:f7:
                    21:67:58:30:f5:45:6e:9c:7f:b0:5e:02:a5:1c:dc:
                    1d:e5:49:bb:b8:7b:a1:7d:15:7c:27:51:d0:23:22:
                    b4:67:20:0d:03:23:80:f7:99:93:7a:82:bb:9e:44:
                    68:21:66:55:d5:79:06:98:7e:89:3a:0f:d8:7a:da:
                    a4:36:b9:94:0b:73:4c:82:19:81:a0:97:6a:fb:28:
                    ab:c9:33:31:21:7b:69:ca:b3:ca:21:8b:28:14:c3:
                    75:95:73:9f:ae:8d:07:d9:c6:df:1b:20:23:ba:41:
                    71:8b:db:4a:51:2b:db:33:88:82:75:a8:b9:5a:2a:
                    6e:79:00:06:07:8e:96:7c:62:5b:7d:9a:9a:dd:b6:
                    a3:96:62:35:06:76:68:53:7a:96:f8:cb:7a:28:11:
                    25:50:c3:f7:13:c8:74:8b:26:99:2b:83:88:3a:0b:
                    7f:95:ea:d4:74:de:2f:99:e0:e6:2a:54:ea:01:e8:
                    54:73:a6:bb:72:64:b0:fd:2c:99:c3:1a:e5:c2:a1:
                    09:c7:38:18:c4:d3:c7:1d:19:93:32:e1:df:7e:83:
                    57:e2:dd:f4:9f:1f:c5:e3:5c:c4:ce:e6:fb:7b:6b:
                    43:7a:94:07:21:a5:da:09:7f:a6:bd:73:a4:64:29:
                    1a:d5:2a:e1:ca:2b:b5:c6:df:e5:97:45:3a:b9:a4:
                    ef:e7:2a:ba:fa:e7:89:69:8f:35:a4:c8:4d:70:ce:
                    31:3f:b9:02:f8:c4:75:45:d2:1f:2d:a9:39:1f:9d:
                    1e:62:db:f0:b9:93:81:65:e0:01:dc:0b:01:e6:eb:
                    68:16:17:22:2d:50:89:e3:4d:f1:35:6f:ed:9b:22:
                    c6:8e:87:7b:6b:f0:2e:4a:57:90:58:6a:b5:23:28:
                    9a:78:03:79:88:5d:24:dd:d5:1e:45:36:de:4c:a2:
                    24:6c:f4:cc:24:12:e3:af:a4:90:d7:fe:35:5f:e6:
                    cd:36:5c:1b:a5:c3:f9:52:9d:b9:a3:1e:3b:55:88:
                    6b:e5:d1:81:52:f1:40:97:93:f7:db:64:8d:eb:be:
                    3a:25:73
                Exponent: 65537 (0x10001)
        X509v3 extensions:
            Authority Information Access: 
                CA Issuers - URI:http://root-ca.yijian.com/root-ca.crt
                OCSP - URI:http://ocsp.root-ca.yijian.com:9080

            X509v3 Authority Key Identifier: 
                keyid:73:AA:F3:6A:D8:30:A3:27:B9:59:DE:1F:B7:97:C7:D3:31:6F:27:D7

            X509v3 Basic Constraints: critical
                CA:TRUE, pathlen:0
            X509v3 CRL Distribution Points: 

                Full Name:
                  URI:http://root-ca.yijian.com/root-ca.crl

            X509v3 Extended Key Usage: 
                TLS Web Client Authentication, TLS Web Server Authentication
            X509v3 Key Usage: critical
                Certificate Sign, CRL Sign
            X509v3 Name Constraints: 
                Permitted:
                  DNS:yijian.com
                  DNS:yijian.org
                Excluded:
                  IP:0.0.0.0/0.0.0.0
                  IP:0:0:0:0:0:0:0:0/0:0:0:0:0:0:0:0

            X509v3 Subject Key Identifier: 
                8C:14:69:EB:FF:BA:7E:B7:A7:F6:22:65:D5:35:B2:56:91:93:61:A6
    Signature Algorithm: sha256WithRSAEncryption
         93:15:d0:89:f1:4a:fe:1c:cc:70:42:94:83:21:b2:f3:bc:22:
         de:62:9e:f9:1c:0c:34:aa:10:fd:35:db:a2:55:5f:cf:c4:77:
         04:c9:10:04:05:e9:60:e8:0d:0f:b8:19:fb:e4:f1:c4:29:8c:
         bd:e0:ac:ef:74:20:9e:30:66:85:96:c0:74:bf:16:48:55:af:
         d1:32:d3:99:c0:a1:cb:63:58:55:5b:40:d9:77:63:5a:ab:e2:
         5e:79:1d:8e:43:b5:fc:b6:f6:a9:bc:7d:ad:2f:fc:95:72:65:
         74:28:ab:d8:8b:41:06:e8:8c:ce:c7:f4:93:c3:0b:cb:50:97:
         33:87:47:f1:80:1b:e2:23:df:78:bb:53:e2:ec:87:4b:b1:95:
         45:fe:81:86:10:8f:85:94:02:5a:5d:cf:7e:5c:68:b1:f5:9a:
         14:0c:b0:dc:6e:8f:10:23:34:7a:af:be:47:75:fd:6f:ee:99:
         54:d6:db:b0:8b:e9:a4:93:78:30:13:88:86:c7:27:98:c3:10:
         47:40:38:6d:7b:a7:68:07:c2:b7:ea:ab:e8:e8:d8:10:58:f9:
         2b:76:94:1c:61:f0:8d:8c:a8:33:94:c5:c5:2c:1a:24:56:0c:
         be:ef:c4:43:a7:2a:a7:69:32:d1:cc:74:fe:0a:aa:1a:fc:69:
         bd:64:28:15:f7:f6:00:c0:90:43:64:d8:6b:a1:f0:3d:81:c8:
         83:30:d8:f9:f4:85:87:f5:c6:87:5d:89:d4:e0:db:ef:9b:0f:
         d7:4d:41:ba:eb:75:de:36:c4:e2:66:cd:ec:92:69:c4:a1:7a:
         0e:9a:41:c3:3d:b8:bb:4d:62:ff:0c:7f:d8:ec:8b:27:a1:c4:
         e3:0a:a2:90:5f:8e:97:3d:21:a0:cf:ba:a6:ab:47:be:4b:7d:
         76:d4:e3:e7:c6:18:88:92:99:19:3e:06:78:4b:69:bd:74:db:
         f5:eb:fb:3c:5f:4b:28:b1:00:9f:41:f1:e5:56:8b:b7:de:33:
         71:41:59:76:45:60:41:fe:50:87:44:a6:5e:fc:a7:46:a7:ff:
         31:ea:15:63:f6:90:89:86:ba:58:c1:f0:1f:c3:20:32:b1:92:
         f0:9f:e5:29:79:18:c2:d0:b1:1a:38:e9:cc:98:ca:9f:b8:e3:
         27:e3:9c:a4:b7:f1:f6:76:36:3c:93:90:cc:64:89:da:70:cf:
         b0:d5:d5:83:88:80:b7:07:a2:25:74:05:62:66:8d:fc:1c:b8:
         df:8d:0d:b4:75:11:b5:2f:74:9d:e8:ff:a8:8b:74:b4:07:5b:
         06:ec:9e:63:35:65:e9:76:5c:96:0f:91:57:3e:de:a6:4d:e2:
         38:c3:f5:b0:11:52:61:42
-----BEGIN CERTIFICATE-----
MIIGejCCBGKgAwIBAgIRAOuD6h9bvjseS3qMa80qTy8wDQYJKoZIhvcNAQELBQAw
MDELMAkGA1UEBhMCQ04xDzANBgNVBAoMBnlpamlhbjEQMA4GA1UEAwwHUm9vdCBD
QTAeFw0xNzAxMTYwMjI1NDBaFw0yNzAxMTQwMjI1NDBaMC8xCzAJBgNVBAYTAkNO
MQ8wDQYDVQQKDAZ5aWppYW4xDzANBgNVBAMMBlN1YiBDQTCCAiIwDQYJKoZIhvcN
AQEBBQADggIPADCCAgoCggIBAL//sbJkX/gjCmIjmYgu6wxhdPzXfY1uYEr49WIi
nVBeHhy1/epPOBYu6dN0fOgl51ky+KEngyPqq453HGuCAMSrffAdh2vtuLuF+IF5
OVSHigOXWZbdmY9v9zK/9ShxOF8cR1ae6XkIGpu9gSYxJISBdh3c0e33IWdYMPVF
bpx/sF4CpRzcHeVJu7h7oX0VfCdR0CMitGcgDQMjgPeZk3qCu55EaCFmVdV5Bph+
iToP2HrapDa5lAtzTIIZgaCXavsoq8kzMSF7acqzyiGLKBTDdZVzn66NB9nG3xsg
I7pBcYvbSlEr2zOIgnWouVoqbnkABgeOlnxiW32amt22o5ZiNQZ2aFN6lvjLeigR
JVDD9xPIdIsmmSuDiDoLf5Xq1HTeL5ng5ipU6gHoVHOmu3JksP0smcMa5cKhCcc4
GMTTxx0ZkzLh336DV+Ld9J8fxeNcxM7m+3trQ3qUByGl2gl/pr1zpGQpGtUq4cor
tcbf5ZdFOrmk7+cquvrniWmPNaTITXDOMT+5AvjEdUXSHy2pOR+dHmLb8LmTgWXg
AdwLAebraBYXIi1QieNN8TVv7Zsixo6He2vwLkpXkFhqtSMomngDeYhdJN3VHkU2
3kyiJGz0zCQS46+kkNf+NV/mzTZcG6XD+VKduaMeO1WIa+XRgVLxQJeT99tkjeu+
OiVzAgMBAAGjggGOMIIBijByBggrBgEFBQcBAQRmMGQwMQYIKwYBBQUHMAKGJWh0
dHA6Ly9yb290LWNhLnlpamlhbi5jb20vcm9vdC1jYS5jcnQwLwYIKwYBBQUHMAGG
I2h0dHA6Ly9vY3NwLnJvb3QtY2EueWlqaWFuLmNvbTo5MDgwMB8GA1UdIwQYMBaA
FHOq82rYMKMnuVneH7eXx9MxbyfXMBIGA1UdEwEB/wQIMAYBAf8CAQAwNgYDVR0f
BC8wLTAroCmgJ4YlaHR0cDovL3Jvb3QtY2EueWlqaWFuLmNvbS9yb290LWNhLmNy
bDAdBgNVHSUEFjAUBggrBgEFBQcDAgYIKwYBBQUHAwEwDgYDVR0PAQH/BAQDAgEG
MFkGA1UdHgRSMFCgHDAMggp5aWppYW4uY29tMAyCCnlpamlhbi5vcmehMDAKhwgA
AAAAAAAAADAihyAAAAAAAAAAAAAAAAAAAAAAAAAAAAAAAAAAAAAAAAAAADAdBgNV
HQ4EFgQUjBRp6/+6fren9iJl1TWyVpGTYaYwDQYJKoZIhvcNAQELBQADggIBAJMV
0InxSv4czHBClIMhsvO8It5invkcDDSqEP0126JVX8/EdwTJEAQF6WDoDQ+4Gfvk
8cQpjL3grO90IJ4wZoWWwHS/FkhVr9Ey05nAoctjWFVbQNl3Y1qr4l55HY5Dtfy2
9qm8fa0v/JVyZXQoq9iLQQbojM7H9JPDC8tQlzOHR/GAG+Ij33i7U+Lsh0uxlUX+
gYYQj4WUAlpdz35caLH1mhQMsNxujxAjNHqvvkd1/W/umVTW27CL6aSTeDATiIbH
J5jDEEdAOG17p2gHwrfqq+jo2BBY+St2lBxh8I2MqDOUxcUsGiRWDL7vxEOnKqdp
MtHMdP4Kqhr8ab1kKBX39gDAkENk2Guh8D2ByIMw2Pn0hYf1xoddidTg2++bD9dN
Qbrrdd42xOJmzeySacSheg6aQcM9uLtNYv8Mf9jsiyehxOMKopBfjpc9IaDPuqar
R75LfXbU4+fGGIiSmRk+BnhLab102/Xr+zxfSyixAJ9B8eVWi7feM3FBWXZFYEH+
UIdEpl78p0an/zHqFWP2kImGuljB8B/DIDKxkvCf5Sl5GMLQsRo46cyYyp+44yfj
nKS38fZ2NjyTkMxkidpwz7DV1YOIgLcHoiV0BWJmjfwcuN+NDbR1EbUvdJ3o/6iL
dLQHWwbsnmM1Zel2XJYPkVc+3qZN4jjD9bARUmFC
-----END CERTIFICATE-----
