Certificate:
    Data:
        Version: 3 (0x2)
        Serial Number:
            eb:83:ea:1f:5b:be:3b:1e:4b:7a:8c:6b:cd:2a:4f:25
    Signature Algorithm: sha256WithRSAEncryption
        Issuer: C=CN, O=Yijian, CN=Root CA
        Validity
            Not Before: Jan  7 14:17:58 2017 GMT
            Not After : Jan  5 14:17:58 2027 GMT
        Subject: C=CN, O=Yijian, CN=Root CA
        Subject Public Key Info:
            Public Key Algorithm: rsaEncryption
                Public-Key: (4096 bit)
                Modulus:
                    00:db:08:72:95:a6:8c:b3:3d:a0:43:07:62:b6:87:
                    15:b5:ce:62:f3:32:b8:7a:91:fd:e8:f0:fc:45:0c:
                    13:6c:eb:53:95:b8:f5:19:d7:99:0e:12:d7:24:d8:
                    81:71:24:ce:4c:e1:30:d7:26:5f:18:2e:a2:04:56:
                    f4:4e:8c:0c:b8:03:c0:f2:46:69:d2:40:3f:d9:6d:
                    7e:8b:3b:f9:fa:48:0b:5e:d7:c0:4f:40:fc:c4:ad:
                    34:5e:5e:6a:06:dd:26:2e:6c:8d:92:19:9c:c3:5b:
                    e9:18:13:09:b7:e6:4b:40:91:91:7c:57:2f:fd:3a:
                    ef:a1:cb:fd:6a:63:5b:c7:ff:40:cf:96:5c:48:bf:
                    77:df:cd:3a:bf:92:ec:2d:46:e5:0d:ae:f3:a9:83:
                    32:de:43:87:d1:a7:20:da:cb:ce:32:7e:b1:01:7c:
                    c5:38:af:36:d1:e5:d4:85:35:02:f7:2b:ac:ec:6f:
                    47:98:f8:d9:31:7e:11:e1:ff:a8:4b:d6:d5:26:e4:
                    66:7c:17:5f:27:82:41:eb:b2:30:32:99:da:1a:1f:
                    d7:27:3d:5f:e5:76:91:a4:f3:1d:e9:45:db:06:36:
                    2a:4e:fa:35:91:fb:ab:d3:4c:cf:a8:14:b8:33:1c:
                    1c:49:28:1d:f4:2c:92:fc:1d:b6:01:6d:b1:03:63:
                    b3:f1:0a:07:90:09:96:ed:4b:79:cc:64:a8:09:f2:
                    5a:6c:3d:03:8e:70:75:05:1e:f4:6f:03:37:1a:17:
                    2f:2c:b8:86:0c:55:e6:94:a8:d2:48:e4:03:01:84:
                    64:bd:58:58:cd:d6:e5:d9:bd:3b:46:0e:88:e1:2b:
                    8e:0e:00:c1:6f:39:7a:87:0c:c6:be:81:29:b1:06:
                    80:a8:4d:1b:ef:ed:87:83:bb:a6:ce:12:ef:05:47:
                    00:44:54:0e:68:78:78:ac:6f:0c:47:a6:08:63:f5:
                    e5:2c:fe:10:2e:5d:aa:08:cf:ae:4a:39:3c:70:14:
                    c6:f9:b8:0c:1d:2d:cd:dc:4e:a5:8e:b7:90:b9:fa:
                    dc:e4:c7:74:83:d5:6c:66:e1:ea:3a:50:df:ee:d9:
                    22:b8:ba:d1:a1:10:a7:03:d2:d2:3e:94:f8:33:f7:
                    50:c7:ed:9f:da:6c:ed:c6:30:1c:e3:72:62:1c:31:
                    58:a4:eb:03:ef:f2:b3:4b:6c:fb:31:f2:99:6c:87:
                    53:4a:69:18:45:cb:34:c4:05:a5:f7:b9:99:50:a8:
                    ca:71:a8:27:ec:dc:5c:b3:75:1f:65:4b:14:bc:f0:
                    20:b4:9e:a8:34:0e:4f:7d:66:f8:ad:c2:d9:93:64:
                    c8:b8:4f:98:22:8d:e6:17:81:a9:c5:1b:2c:c2:7c:
                    17:1a:0f
                Exponent: 65537 (0x10001)
        X509v3 extensions:
            X509v3 Basic Constraints: critical
                CA:TRUE
            X509v3 Key Usage: critical
                Certificate Sign, CRL Sign
            X509v3 Subject Key Identifier: 
                72:0B:06:61:34:25:5B:55:D3:29:F3:E3:1F:5F:67:9A:CC:D5:94:DA
    Signature Algorithm: sha256WithRSAEncryption
         5a:a8:40:4a:fb:35:15:b2:19:1d:a8:07:4a:18:dc:7e:99:52:
         46:55:42:1a:cd:c2:da:7e:91:07:8b:08:d4:3f:89:63:d5:e0:
         34:ac:09:2a:bc:c0:1d:e0:c2:bb:e7:4d:c4:0b:11:1c:03:21:
         f9:ba:98:85:82:ce:d8:2b:d8:da:1f:6c:96:55:00:cb:2c:8f:
         11:73:3d:fe:91:28:61:a9:9c:9f:cf:ef:21:36:88:1c:37:79:
         91:e3:37:1f:99:94:cf:dc:34:54:2b:e1:e6:e5:a6:39:47:c5:
         2f:ea:1a:6a:bc:be:07:5c:81:64:4b:cc:96:cc:8c:7a:ca:37:
         a6:b9:7d:d3:f1:3d:14:cf:b6:ba:24:96:1d:2b:f4:6e:c0:d6:
         33:6c:cf:69:d0:cb:aa:18:7a:cb:a4:0d:5e:59:4f:43:4e:9d:
         54:1f:6c:04:5c:bf:80:55:aa:f6:b2:7f:0e:bc:47:54:05:92:
         9f:bc:19:0c:a5:0c:c7:f7:40:f9:2c:48:b2:fd:85:6a:f4:fc:
         f8:21:92:c0:a0:b4:9a:a9:ee:24:a6:aa:f6:a7:87:df:21:e1:
         1a:37:9a:8e:91:37:90:93:bd:4d:34:7d:0f:1e:7f:34:0d:71:
         a6:ef:62:1d:bc:b3:4b:9c:24:e0:e4:49:8e:fc:50:19:cb:d7:
         75:03:2b:cd:f8:8e:77:ce:6d:88:ff:0a:12:00:bf:e0:ac:59:
         26:7f:dd:df:33:a3:8d:fd:e5:88:5c:5a:5a:cf:a0:0c:11:21:
         d5:2b:0f:da:c5:20:ec:d0:96:d3:3a:82:f2:08:fb:ef:d1:23:
         c3:4d:0c:a0:39:e0:d6:1b:dc:bd:b6:9f:32:9f:ed:f8:b3:38:
         43:0e:28:d0:ef:7f:aa:04:81:11:51:c9:6a:64:d8:a3:6c:6d:
         45:32:e1:42:8a:94:2c:af:0e:0f:ce:ce:94:81:c6:23:1e:8a:
         0d:ab:4b:35:46:15:d7:6d:91:e1:d4:a5:57:e7:dc:ce:dd:3f:
         71:29:3e:19:0a:9c:af:60:64:96:02:91:da:0c:8a:09:1d:cf:
         d5:1a:8e:cd:70:27:9e:50:d8:3e:21:76:7a:10:06:44:bb:dc:
         19:0f:be:f6:26:20:c2:1e:19:32:23:d3:23:70:58:49:e2:a3:
         64:86:82:ae:21:85:39:50:70:08:83:9e:52:6b:63:ba:34:a6:
         b8:30:27:56:12:ff:7f:73:cc:d4:f0:f7:6e:48:a7:fe:48:62:
         53:97:61:20:15:3a:fe:a5:81:e7:6b:de:cb:3b:72:07:a5:cc:
         2b:fb:fd:5f:c1:3d:ef:ad:68:d2:0e:04:a5:04:38:a2:8d:51:
         d8:c2:ee:d6:c9:45:4e:d2
-----BEGIN CERTIFICATE-----
MIIFLTCCAxWgAwIBAgIRAOuD6h9bvjseS3qMa80qTyUwDQYJKoZIhvcNAQELBQAw
MDELMAkGA1UEBhMCQ04xDzANBgNVBAoMBllpamlhbjEQMA4GA1UEAwwHUm9vdCBD
QTAeFw0xNzAxMDcxNDE3NThaFw0yNzAxMDUxNDE3NThaMDAxCzAJBgNVBAYTAkNO
MQ8wDQYDVQQKDAZZaWppYW4xEDAOBgNVBAMMB1Jvb3QgQ0EwggIiMA0GCSqGSIb3
DQEBAQUAA4ICDwAwggIKAoICAQDbCHKVpoyzPaBDB2K2hxW1zmLzMrh6kf3o8PxF
DBNs61OVuPUZ15kOEtck2IFxJM5M4TDXJl8YLqIEVvROjAy4A8DyRmnSQD/ZbX6L
O/n6SAte18BPQPzErTReXmoG3SYubI2SGZzDW+kYEwm35ktAkZF8Vy/9Ou+hy/1q
Y1vH/0DPllxIv3ffzTq/kuwtRuUNrvOpgzLeQ4fRpyDay84yfrEBfMU4rzbR5dSF
NQL3K6zsb0eY+NkxfhHh/6hL1tUm5GZ8F18ngkHrsjAymdoaH9cnPV/ldpGk8x3p
RdsGNipO+jWR+6vTTM+oFLgzHBxJKB30LJL8HbYBbbEDY7PxCgeQCZbtS3nMZKgJ
8lpsPQOOcHUFHvRvAzcaFy8suIYMVeaUqNJI5AMBhGS9WFjN1uXZvTtGDojhK44O
AMFvOXqHDMa+gSmxBoCoTRvv7YeDu6bOEu8FRwBEVA5oeHisbwxHpghj9eUs/hAu
XaoIz65KOTxwFMb5uAwdLc3cTqWOt5C5+tzkx3SD1Wxm4eo6UN/u2SK4utGhEKcD
0tI+lPgz91DH7Z/abO3GMBzjcmIcMVik6wPv8rNLbPsx8plsh1NKaRhFyzTEBaX3
uZlQqMpxqCfs3FyzdR9lSxS88CC0nqg0Dk99ZvitwtmTZMi4T5gijeYXganFGyzC
fBcaDwIDAQABo0IwQDAPBgNVHRMBAf8EBTADAQH/MA4GA1UdDwEB/wQEAwIBBjAd
BgNVHQ4EFgQUcgsGYTQlW1XTKfPjH19nmszVlNowDQYJKoZIhvcNAQELBQADggIB
AFqoQEr7NRWyGR2oB0oY3H6ZUkZVQhrNwtp+kQeLCNQ/iWPV4DSsCSq8wB3gwrvn
TcQLERwDIfm6mIWCztgr2NofbJZVAMssjxFzPf6RKGGpnJ/P7yE2iBw3eZHjNx+Z
lM/cNFQr4eblpjlHxS/qGmq8vgdcgWRLzJbMjHrKN6a5fdPxPRTPtroklh0r9G7A
1jNsz2nQy6oYesukDV5ZT0NOnVQfbARcv4BVqvayfw68R1QFkp+8GQylDMf3QPks
SLL9hWr0/PghksCgtJqp7iSmqvanh98h4Ro3mo6RN5CTvU00fQ8efzQNcabvYh28
s0ucJODkSY78UBnL13UDK834jnfObYj/ChIAv+CsWSZ/3d8zo4395YhcWlrPoAwR
IdUrD9rFIOzQltM6gvII++/RI8NNDKA54NYb3L22nzKf7fizOEMOKNDvf6oEgRFR
yWpk2KNsbUUy4UKKlCyvDg/OzpSBxiMeig2rSzVGFddtkeHUpVfn3M7dP3EpPhkK
nK9gZJYCkdoMigkdz9Uajs1wJ55Q2D4hdnoQBkS73BkPvvYmIMIeGTIj0yNwWEni
o2SGgq4hhTlQcAiDnlJrY7o0prgwJ1YS/39zzNTw925Ip/5IYlOXYSAVOv6lgedr
3ss7cgelzCv7/V/BPe+taNIOBKUEOKKNUdjC7tbJRU7S
-----END CERTIFICATE-----
