Certificate:
    Data:
        Version: 3 (0x2)
        Serial Number:
            eb:83:ea:1f:5b:be:3b:1e:4b:7a:8c:6b:cd:2a:4f:29
    Signature Algorithm: sha256WithRSAEncryption
        Issuer: C=CN, O=yijian, CN=Root CA
        Validity
            Not Before: Jan 15 04:25:32 2017 GMT
            Not After : Feb 14 04:25:32 2017 GMT
        Subject: C=CN, O=yijian, CN=OCSP Root Responder
        Subject Public Key Info:
            Public Key Algorithm: rsaEncryption
                Public-Key: (2048 bit)
                Modulus:
                    00:dd:2c:88:49:df:14:95:98:8e:14:47:c8:be:72:
                    77:51:dd:13:6f:5f:17:bf:67:40:e9:05:d6:54:df:
                    4b:81:77:28:62:3e:e6:94:9f:a6:f6:6e:a1:aa:5f:
                    f1:42:45:0a:13:3e:65:60:8b:7a:ea:0f:b1:e8:1e:
                    56:34:1c:de:46:4d:2e:d7:37:d9:04:f1:63:2c:76:
                    c4:22:7a:f5:25:c4:75:e1:8d:f2:48:9d:fe:df:16:
                    df:f1:e5:82:44:f5:50:7a:b9:31:77:69:1d:29:74:
                    d5:b8:db:32:2c:92:a1:86:73:75:dd:58:1d:1e:e9:
                    87:ec:65:d5:48:e9:2c:28:3a:c2:e4:32:2d:a8:2e:
                    5b:64:49:b4:0c:c9:81:e1:a9:97:45:a5:47:ee:11:
                    b0:09:19:ac:9f:f0:63:57:81:46:10:ec:c7:31:05:
                    a7:64:c7:3e:23:76:b3:64:86:65:02:8f:8c:27:5e:
                    b3:e8:f3:5d:56:be:ca:e9:85:c5:ca:21:2b:ea:30:
                    db:b9:93:dc:68:f8:6e:ec:2b:a0:b4:41:b3:3e:8d:
                    0f:98:09:5e:d8:e6:70:ca:15:66:53:ec:5c:67:17:
                    5f:1a:f9:1e:42:36:5a:ac:72:06:86:e5:b9:33:aa:
                    dc:ad:f6:59:7c:57:4c:a8:9c:1f:a6:0b:68:d5:78:
                    07:f1
                Exponent: 65537 (0x10001)
        X509v3 extensions:
            X509v3 Authority Key Identifier: 
                keyid:63:42:24:CB:EF:A3:69:6A:B1:74:D9:8E:44:3E:1F:32:EA:05:58:64

            X509v3 Basic Constraints: critical
                CA:FALSE
            X509v3 Extended Key Usage: 
                OCSP Signing
            X509v3 Key Usage: critical
                Digital Signature
            X509v3 Subject Key Identifier: 
                00:D1:67:38:0A:AD:2A:FF:4F:2A:B3:06:52:19:10:E1:D6:37:98:D6
    Signature Algorithm: sha256WithRSAEncryption
         5d:9f:3c:58:1f:f8:52:fe:ec:43:3b:db:32:28:23:ae:d9:69:
         76:f4:4c:39:9b:0e:35:cc:cc:84:9e:40:56:76:7d:c6:8f:b3:
         f0:cc:56:98:b0:43:d4:07:a5:df:15:b4:e3:ac:17:4c:cc:a6:
         a3:a9:f1:48:8d:81:e6:0e:57:a5:bd:02:08:ec:bf:a3:bd:e9:
         02:3d:e9:4f:fc:b1:24:53:59:3d:c5:01:09:e1:c9:1d:7c:69:
         e6:a0:c6:cb:7f:72:cf:63:af:70:6a:4d:ef:37:b5:8a:09:fc:
         e5:3b:7a:dd:67:17:2f:12:a9:53:9b:c1:bc:88:3f:6e:35:9c:
         a5:53:c3:19:e1:4f:2f:8e:8d:26:38:67:4d:5b:4d:84:cf:35:
         cc:40:89:00:a6:74:9a:f2:8b:12:a9:9e:49:51:de:ea:73:35:
         c0:71:ec:81:a5:1e:59:89:31:6c:10:12:dd:b6:79:1f:a6:8c:
         94:f9:16:70:ea:de:ce:88:07:53:ac:ec:4d:6b:9d:04:a8:c7:
         14:bb:d8:e2:97:18:ff:70:b3:34:1d:6a:c7:14:5e:a3:39:51:
         60:92:84:d0:a3:b4:f8:dc:75:9d:5f:31:ee:c3:4c:16:de:37:
         f7:18:78:3b:1f:9d:9b:98:95:c2:3d:2a:ea:11:4a:6f:de:b2:
         1d:6d:c4:34:d9:97:60:f0:5d:f3:fa:5f:56:26:ff:93:7f:ec:
         b4:67:e9:7f:79:02:a0:24:81:6f:44:fd:b9:20:df:76:a0:7c:
         d8:d7:9d:ff:16:e6:25:64:a2:90:56:57:42:72:88:76:c8:b1:
         ff:af:5a:9a:50:30:59:22:9f:37:57:7a:cd:8a:5c:61:b3:c7:
         55:9a:90:6a:f6:e4:dd:9d:a0:96:35:8a:8c:b2:7a:46:1a:21:
         b4:f0:c5:54:ba:ae:11:ad:09:77:83:62:44:07:9e:b2:1d:ea:
         8f:01:fa:53:35:ca:78:e4:ee:83:c5:20:52:5c:89:2e:05:a2:
         71:33:55:84:b9:f5:04:3c:9d:79:d2:43:61:0d:1b:f8:3c:82:
         ca:d8:ab:6e:b7:fc:e8:0b:63:b6:0c:c5:ba:73:bd:81:9b:cb:
         2f:40:50:e8:a5:36:0d:db:bf:78:fd:51:78:61:f9:e9:8a:bb:
         d0:92:77:c0:f6:fb:7e:cb:3f:f8:01:06:6c:03:bd:27:55:72:
         c6:a4:4c:cc:b2:5e:67:c7:9e:a1:02:b5:28:ce:50:fc:82:b6:
         8e:46:53:28:7e:33:1c:f2:76:7b:d7:62:b3:33:2f:5c:be:49:
         63:c4:c4:53:7f:4e:15:41:18:54:aa:b0:d5:2f:b2:83:7a:69:
         df:b9:17:1c:ca:20:67:04
-----BEGIN CERTIFICATE-----
MIIEbDCCAlSgAwIBAgIRAOuD6h9bvjseS3qMa80qTykwDQYJKoZIhvcNAQELBQAw
MDELMAkGA1UEBhMCQ04xDzANBgNVBAoMBnlpamlhbjEQMA4GA1UEAwwHUm9vdCBD
QTAeFw0xNzAxMTUwNDI1MzJaFw0xNzAyMTQwNDI1MzJaMDwxCzAJBgNVBAYTAkNO
MQ8wDQYDVQQKDAZ5aWppYW4xHDAaBgNVBAMME09DU1AgUm9vdCBSZXNwb25kZXIw
ggEiMA0GCSqGSIb3DQEBAQUAA4IBDwAwggEKAoIBAQDdLIhJ3xSVmI4UR8i+cndR
3RNvXxe/Z0DpBdZU30uBdyhiPuaUn6b2bqGqX/FCRQoTPmVgi3rqD7HoHlY0HN5G
TS7XN9kE8WMsdsQievUlxHXhjfJInf7fFt/x5YJE9VB6uTF3aR0pdNW42zIskqGG
c3XdWB0e6YfsZdVI6SwoOsLkMi2oLltkSbQMyYHhqZdFpUfuEbAJGayf8GNXgUYQ
7McxBadkxz4jdrNkhmUCj4wnXrPo811WvsrphcXKISvqMNu5k9xo+G7sK6C0QbM+
jQ+YCV7Y5nDKFWZT7FxnF18a+R5CNlqscgaG5bkzqtyt9ll8V0yonB+mC2jVeAfx
AgMBAAGjdTBzMB8GA1UdIwQYMBaAFGNCJMvvo2lqsXTZjkQ+HzLqBVhkMAwGA1Ud
EwEB/wQCMAAwEwYDVR0lBAwwCgYIKwYBBQUHAwkwDgYDVR0PAQH/BAQDAgeAMB0G
A1UdDgQWBBQA0Wc4Cq0q/08qswZSGRDh1jeY1jANBgkqhkiG9w0BAQsFAAOCAgEA
XZ88WB/4Uv7sQzvbMigjrtlpdvRMOZsONczMhJ5AVnZ9xo+z8MxWmLBD1Ael3xW0
46wXTMymo6nxSI2B5g5Xpb0CCOy/o73pAj3pT/yxJFNZPcUBCeHJHXxp5qDGy39y
z2OvcGpN7ze1ign85Tt63WcXLxKpU5vBvIg/bjWcpVPDGeFPL46NJjhnTVtNhM81
zECJAKZ0mvKLEqmeSVHe6nM1wHHsgaUeWYkxbBAS3bZ5H6aMlPkWcOrezogHU6zs
TWudBKjHFLvY4pcY/3CzNB1qxxReozlRYJKE0KO0+Nx1nV8x7sNMFt439xh4Ox+d
m5iVwj0q6hFKb96yHW3ENNmXYPBd8/pfVib/k3/stGfpf3kCoCSBb0T9uSDfdqB8
2Ned/xbmJWSikFZXQnKIdsix/69amlAwWSKfN1d6zYpcYbPHVZqQavbk3Z2gljWK
jLJ6RhohtPDFVLquEa0Jd4NiRAeesh3qjwH6UzXKeOTug8UgUlyJLgWicTNVhLn1
BDydedJDYQ0b+DyCytirbrf86AtjtgzFunO9gZvLL0BQ6KU2Ddu/eP1ReGH56Yq7
0JJ3wPb7fss/+AEGbAO9J1VyxqRMzLJeZ8eeoQK1KM5Q/IK2jkZTKH4zHPJ2e9di
szMvXL5JY8TEU39OFUEYVKqw1S+yg3pp37kXHMogZwQ=
-----END CERTIFICATE-----
