Certificate:
    Data:
        Version: 3 (0x2)
        Serial Number:
            eb:83:ea:1f:5b:be:3b:1e:4b:7a:8c:6b:cd:2a:4f:2b
    Signature Algorithm: sha256WithRSAEncryption
        Issuer: C=CN, O=yijian, CN=Sub CA
        Validity
            Not Before: Jan 15 10:32:07 2017 GMT
            Not After : Jan 15 10:32:07 2018 GMT
        Subject: C=CN, O=yijian, CN=www.iching.com
        Subject Public Key Info:
            Public Key Algorithm: rsaEncryption
                Public-Key: (2048 bit)
                Modulus:
                    00:bb:b3:e9:f8:74:93:31:68:0d:bf:26:70:ca:cf:
                    8e:66:26:ab:b6:f7:a2:e0:8b:13:c1:fb:39:69:a1:
                    50:56:01:98:71:19:81:b9:03:22:2b:4a:3e:db:42:
                    bf:7a:7c:d7:3e:77:80:bc:27:e4:2b:9c:93:d0:35:
                    66:6f:6a:6b:fc:12:a9:a6:99:44:03:62:ec:ff:31:
                    00:21:bf:dc:81:4e:98:20:e6:57:38:a4:5b:cb:b8:
                    0c:04:56:39:31:39:de:20:03:ce:83:60:82:26:06:
                    05:82:6a:26:53:d2:07:8a:c5:dc:6e:f9:ef:34:72:
                    33:59:fd:64:44:df:7f:70:62:a1:69:d1:78:2e:7c:
                    db:9e:26:f7:1d:e3:95:1f:20:e2:ba:14:43:8f:c7:
                    14:ee:07:21:ed:4f:70:e5:48:be:8e:d9:b5:8d:c4:
                    d8:66:8b:bf:8b:dc:ca:e6:85:0d:6c:09:39:77:62:
                    cc:09:ca:bf:dd:7d:d6:c9:6d:e6:4e:6e:cc:f2:f6:
                    cd:c6:e2:f9:1a:8c:db:3a:ed:48:54:23:7a:4a:47:
                    dd:68:79:19:d2:0c:b9:b6:74:7d:3d:f5:4c:53:32:
                    92:54:ff:0c:d1:1e:60:1a:e6:26:d4:18:69:8c:15:
                    6e:27:4a:81:eb:89:ac:c8:13:9a:73:86:79:12:2c:
                    5c:27
                Exponent: 65537 (0x10001)
        X509v3 extensions:
            Authority Information Access: 
                CA Issuers - URI:http://sub-ca.yijian.com/sub-ca.crt
                OCSP - URI:http://ocsp.sub-ca.yijian.com:9081

            X509v3 Authority Key Identifier: 
                keyid:D8:6F:AE:7C:4B:E4:0D:40:22:A5:E1:CB:AD:E2:C2:73:4E:4E:C8:C7

            X509v3 Basic Constraints: critical
                CA:FALSE
            X509v3 CRL Distribution Points: 

                Full Name:
                  URI:http://sub-ca.yijian.com/sub-ca.crl

            X509v3 Extended Key Usage: 
                TLS Web Client Authentication, TLS Web Server Authentication
            X509v3 Key Usage: critical
                Digital Signature, Key Encipherment
            X509v3 Subject Key Identifier: 
                9A:AD:D4:19:3F:36:F6:2A:32:82:AF:80:56:43:53:C4:29:2B:C8:6D
            X509v3 Subject Alternative Name: 
                DNS:www.iching.com
    Signature Algorithm: sha256WithRSAEncryption
         d0:ac:0a:a0:7d:8e:ff:90:9b:06:85:ae:69:57:89:4d:c9:20:
         d6:77:64:89:9e:be:6a:2f:95:73:7f:bd:ef:1b:63:e2:f7:26:
         99:32:f8:3c:6b:25:85:77:28:fb:db:a8:12:79:34:7d:a4:00:
         34:c8:c9:8a:6a:6e:1e:bf:fe:3e:c4:7a:0c:f1:ff:b8:1e:6b:
         dc:7e:20:83:1b:33:22:a5:f1:48:0b:eb:10:7f:91:12:01:bc:
         b6:e9:b2:5a:aa:b3:ea:d1:3c:5e:0c:b9:d7:36:bc:9c:dc:96:
         d6:a9:01:fc:96:59:11:37:f3:b7:c5:9f:f7:4d:04:f8:0d:2b:
         97:27:c3:c5:29:09:0f:90:c7:e9:a8:74:c0:4b:3b:e1:d2:26:
         78:af:d9:90:90:05:83:22:4e:a4:22:3b:26:c6:b3:15:c1:00:
         ae:d9:4a:da:15:64:a3:99:91:8d:40:71:21:71:fc:d2:61:8b:
         6d:7c:a4:b9:9d:43:89:a1:4a:c5:e0:9b:25:da:bb:ae:72:f7:
         d6:18:bd:bc:ec:22:c4:b0:80:29:be:14:95:44:ea:d0:1a:1c:
         83:e9:bd:2c:ad:d5:d9:80:31:8d:50:ea:6b:01:4e:58:64:a5:
         15:9f:2b:d9:e3:6a:8b:a7:2d:24:f9:78:4e:13:3b:80:cd:42:
         d3:95:84:27:49:3f:c0:1c:be:be:22:83:1d:4d:f1:ad:ee:da:
         13:bf:ed:a3:c4:5b:a2:77:4a:a4:0e:89:ca:03:0c:45:63:63:
         9b:94:f4:cf:90:19:85:cc:6c:18:57:24:69:d0:be:54:4b:23:
         76:a0:7e:79:62:90:90:1b:47:91:cb:77:12:87:46:2a:36:79:
         30:cf:b7:3e:74:84:d0:b5:c4:12:94:10:17:fe:c2:13:7d:24:
         33:47:6e:d3:bd:97:e5:fc:c6:78:9f:fc:20:53:fd:ab:69:2c:
         4b:da:73:11:7c:f2:3e:02:64:e7:ed:b9:81:3c:31:d1:e8:34:
         63:00:5a:18:e6:68:66:13:43:5d:75:94:58:20:75:18:6e:6f:
         28:ab:ef:3e:0f:a1:58:69:31:f2:c9:c0:4d:dc:45:35:9c:83:
         09:a0:e3:e5:52:f2:e4:fc:54:b0:1f:ab:16:24:61:52:ef:34:
         1e:62:b6:b7:ce:d3:02:a5:f7:1c:b7:e2:89:22:6e:4d:3a:64:
         4d:e2:c7:d6:3c:cd:67:52:9d:c1:b8:c5:89:d1:75:12:b8:85:
         ac:4c:3d:0f:1b:83:e3:25:ed:8b:2b:34:87:58:d2:85:6d:8e:
         c5:4b:7d:6a:2f:5e:6f:a9:38:4b:08:d5:06:eb:63:fc:4c:92:
         8b:ea:26:f7:59:9f:2e:7e
-----BEGIN CERTIFICATE-----
MIIFNjCCAx6gAwIBAgIRAOuD6h9bvjseS3qMa80qTyswDQYJKoZIhvcNAQELBQAw
LzELMAkGA1UEBhMCQ04xDzANBgNVBAoMBnlpamlhbjEPMA0GA1UEAwwGU3ViIENB
MB4XDTE3MDExNTEwMzIwN1oXDTE4MDExNTEwMzIwN1owNzELMAkGA1UEBhMCQ04x
DzANBgNVBAoMBnlpamlhbjEXMBUGA1UEAwwOd3d3LmljaGluZy5jb20wggEiMA0G
CSqGSIb3DQEBAQUAA4IBDwAwggEKAoIBAQC7s+n4dJMxaA2/JnDKz45mJqu296Lg
ixPB+zlpoVBWAZhxGYG5AyIrSj7bQr96fNc+d4C8J+QrnJPQNWZvamv8EqmmmUQD
Yuz/MQAhv9yBTpgg5lc4pFvLuAwEVjkxOd4gA86DYIImBgWCaiZT0geKxdxu+e80
cjNZ/WRE339wYqFp0XgufNueJvcd45UfIOK6FEOPxxTuByHtT3DlSL6O2bWNxNhm
i7+L3MrmhQ1sCTl3YswJyr/dfdbJbeZObszy9s3G4vkajNs67UhUI3pKR91oeRnS
DLm2dH099UxTMpJU/wzRHmAa5ibUGGmMFW4nSoHriazIE5pzhnkSLFwnAgMBAAGj
ggFDMIIBPzBvBggrBgEFBQcBAQRjMGEwLwYIKwYBBQUHMAKGI2h0dHA6Ly9zdWIt
Y2EueWlqaWFuLmNvbS9zdWItY2EuY3J0MC4GCCsGAQUFBzABhiJodHRwOi8vb2Nz
cC5zdWItY2EueWlqaWFuLmNvbTo5MDgxMB8GA1UdIwQYMBaAFNhvrnxL5A1AIqXh
y63iwnNOTsjHMAwGA1UdEwEB/wQCMAAwNAYDVR0fBC0wKzApoCegJYYjaHR0cDov
L3N1Yi1jYS55aWppYW4uY29tL3N1Yi1jYS5jcmwwHQYDVR0lBBYwFAYIKwYBBQUH
AwIGCCsGAQUFBwMBMA4GA1UdDwEB/wQEAwIFoDAdBgNVHQ4EFgQUmq3UGT829ioy
gq+AVkNTxCkryG0wGQYDVR0RBBIwEIIOd3d3LmljaGluZy5jb20wDQYJKoZIhvcN
AQELBQADggIBANCsCqB9jv+QmwaFrmlXiU3JINZ3ZImevmovlXN/ve8bY+L3Jpky
+DxrJYV3KPvbqBJ5NH2kADTIyYpqbh6//j7Eegzx/7gea9x+IIMbMyKl8UgL6xB/
kRIBvLbpslqqs+rRPF4Mudc2vJzcltapAfyWWRE387fFn/dNBPgNK5cnw8UpCQ+Q
x+modMBLO+HSJniv2ZCQBYMiTqQiOybGsxXBAK7ZStoVZKOZkY1AcSFx/NJhi218
pLmdQ4mhSsXgmyXau65y99YYvbzsIsSwgCm+FJVE6tAaHIPpvSyt1dmAMY1Q6msB
TlhkpRWfK9njaounLST5eE4TO4DNQtOVhCdJP8Acvr4igx1N8a3u2hO/7aPEW6J3
SqQOicoDDEVjY5uU9M+QGYXMbBhXJGnQvlRLI3agfnlikJAbR5HLdxKHRio2eTDP
tz50hNC1xBKUEBf+whN9JDNHbtO9l+X8xnif/CBT/atpLEvacxF88j4CZOftuYE8
MdHoNGMAWhjmaGYTQ111lFggdRhubyir7z4PoVhpMfLJwE3cRTWcgwmg4+VS8uT8
VLAfqxYkYVLvNB5itrfO0wKl9xy34okibk06ZE3ix9Y8zWdSncG4xYnRdRK4haxM
PQ8bg+Ml7YsrNIdY0oVtjsVLfWovXm+pOEsI1QbrY/xMkovqJvdZny5+
-----END CERTIFICATE-----
