Certificate:
    Data:
        Version: 3 (0x2)
        Serial Number:
            eb:83:ea:1f:5b:be:3b:1e:4b:7a:8c:6b:cd:2a:4f:31
    Signature Algorithm: sha256WithRSAEncryption
        Issuer: C=CN, O=yijian, CN=Sub CA
        Validity
            Not Before: Jan 16 02:55:27 2017 GMT
            Not After : Jan 16 02:55:27 2018 GMT
        Subject: C=CN, O=yijian, CN=www.iching.com
        Subject Public Key Info:
            Public Key Algorithm: rsaEncryption
                Public-Key: (2048 bit)
                Modulus:
                    00:b0:e7:ef:1f:62:aa:cb:95:44:36:a5:90:5a:e2:
                    d0:60:a7:90:71:ac:ee:16:00:6d:5a:04:10:f3:d8:
                    41:39:3c:45:91:16:cf:e0:5a:cf:24:fe:02:a1:c5:
                    0c:b4:75:40:ee:c9:83:6b:35:74:24:c2:2e:8b:9f:
                    7e:b9:48:6e:59:34:94:e9:8d:7e:90:a4:86:9d:f5:
                    cb:6c:fe:ce:40:2b:ec:df:e4:71:97:c7:3c:ba:0b:
                    80:6a:aa:77:ed:60:85:58:a9:e2:3c:92:d8:5b:de:
                    eb:d9:1b:97:cb:cf:1f:f4:02:2a:32:c0:2a:db:0e:
                    a4:ed:9d:4c:0c:36:ce:0d:df:f3:bd:7e:37:ca:d8:
                    d7:42:ea:80:7a:6f:dd:90:8c:4b:05:4c:0d:dc:da:
                    01:2c:97:94:2d:a4:2d:10:26:03:08:5d:c7:3e:69:
                    32:21:4b:9a:1f:d7:6d:b6:26:d4:18:c1:c4:b9:cf:
                    33:77:61:56:bb:5b:f9:c4:62:66:5c:65:7e:d7:7b:
                    49:bc:63:dd:83:7c:58:88:1b:04:0b:61:38:5a:60:
                    ba:af:cd:79:44:23:56:8d:fb:98:5e:28:66:b3:32:
                    1f:ed:32:78:79:65:48:f6:b6:de:86:14:2b:da:eb:
                    02:30:51:b7:af:a2:c1:74:01:7d:cd:dc:f1:3a:9c:
                    8e:75
                Exponent: 65537 (0x10001)
        X509v3 extensions:
            Authority Information Access: 
                CA Issuers - URI:http://sub-ca.yijian.com/sub-ca.crt
                OCSP - URI:http://ocsp.sub-ca.yijian.com:9081

            X509v3 Authority Key Identifier: 
                keyid:F3:89:F0:50:CD:77:62:18:26:07:8D:41:C1:D5:D2:23:39:DB:1B:00

            X509v3 Basic Constraints: critical
                CA:FALSE
            X509v3 CRL Distribution Points: 

                Full Name:
                  URI:http://sub-ca.yijian.com/sub-ca.crl

            X509v3 Extended Key Usage: 
                TLS Web Client Authentication, TLS Web Server Authentication
            X509v3 Key Usage: critical
                Digital Signature, Key Encipherment
            X509v3 Subject Key Identifier: 
                74:14:75:A2:88:26:EB:FB:3D:9A:D2:A8:17:69:A9:20:9F:25:50:F9
            X509v3 Subject Alternative Name: 
                DNS:www.iching.com
    Signature Algorithm: sha256WithRSAEncryption
         83:ab:73:48:60:9c:bc:8e:fc:dc:08:0a:e1:c3:79:82:a8:62:
         a9:82:cc:1c:6f:16:1a:d0:83:e8:1e:99:64:3d:c7:44:02:22:
         5e:83:6b:29:a4:6f:b1:fc:ac:f7:65:21:fd:b4:e3:c3:63:9a:
         13:6d:96:6e:87:48:4c:fa:ac:86:6e:ba:31:02:5c:50:f3:9d:
         19:73:0a:13:34:e8:ef:b9:03:f8:cf:f5:5d:b5:3c:e0:63:f1:
         3f:89:ae:3b:b6:32:54:b9:68:40:1f:12:a5:1b:0d:95:73:80:
         70:c8:b8:f0:22:30:fe:3b:ed:aa:6a:b0:c9:6d:b1:61:84:5e:
         ca:6f:cc:1f:d7:28:72:50:e0:c6:be:bb:26:97:cf:8e:17:f6:
         b5:d4:41:5d:a0:05:3a:47:c2:92:3f:00:ca:76:c7:5e:e8:ff:
         10:8c:19:8b:a3:41:91:7e:68:5a:0e:43:64:11:92:a7:cf:c0:
         1b:7e:f8:62:c9:2f:c7:cc:f3:10:6f:a4:e1:7c:fe:01:7d:1b:
         1d:d0:24:a2:cc:54:51:96:10:32:b2:c1:b4:a5:b5:13:3c:2c:
         a4:64:e8:3c:f4:8a:39:98:7c:2c:4d:df:4a:39:ef:48:d7:f8:
         0b:bd:91:76:78:2a:cf:7d:18:a9:90:ba:fc:92:74:51:69:1d:
         d3:c7:49:b9:f0:99:69:3e:25:02:5d:70:8a:ea:80:3d:40:f6:
         b4:f3:00:43:7c:24:33:9e:be:be:07:99:70:d0:24:12:5e:b7:
         b7:1f:38:fe:73:fb:b7:d7:1b:06:f0:a3:75:fa:18:d1:28:d2:
         f2:16:c4:6d:23:50:89:c8:84:1c:52:93:0c:60:74:47:25:3a:
         ad:54:a5:d3:e6:62:67:fe:6b:3c:4b:72:9f:74:18:f6:27:43:
         13:30:4e:3f:e8:7b:85:2f:96:3d:3d:09:33:2b:8c:c3:f9:54:
         1b:bf:7a:46:ea:45:ea:d4:24:af:fb:42:56:bc:4b:fe:de:f0:
         84:58:6c:84:a6:51:b5:2b:79:c7:e7:11:9c:00:4e:c6:9f:ed:
         34:0e:25:f3:1b:7e:27:b4:fd:58:c5:8c:c6:d9:7e:96:5e:fb:
         da:57:8e:a0:90:33:4c:6a:4c:cc:26:f2:f5:59:ea:5e:42:96:
         43:4f:a5:5c:b6:04:cd:ee:12:15:a1:a4:35:1d:05:f0:e8:e1:
         9e:af:21:c6:4a:9c:5e:ff:5a:be:ec:5b:ac:c5:25:eb:6d:59:
         ab:35:61:89:48:97:fd:cc:b3:0e:88:eb:b0:e9:a2:da:ec:ec:
         5c:95:7e:04:6c:9f:d8:31:e3:81:d4:11:05:f7:1d:52:ba:25:
         88:f6:27:25:1d:14:55:28
-----BEGIN CERTIFICATE-----
MIIFNjCCAx6gAwIBAgIRAOuD6h9bvjseS3qMa80qTzEwDQYJKoZIhvcNAQELBQAw
LzELMAkGA1UEBhMCQ04xDzANBgNVBAoMBnlpamlhbjEPMA0GA1UEAwwGU3ViIENB
MB4XDTE3MDExNjAyNTUyN1oXDTE4MDExNjAyNTUyN1owNzELMAkGA1UEBhMCQ04x
DzANBgNVBAoMBnlpamlhbjEXMBUGA1UEAwwOd3d3LmljaGluZy5jb20wggEiMA0G
CSqGSIb3DQEBAQUAA4IBDwAwggEKAoIBAQCw5+8fYqrLlUQ2pZBa4tBgp5BxrO4W
AG1aBBDz2EE5PEWRFs/gWs8k/gKhxQy0dUDuyYNrNXQkwi6Ln365SG5ZNJTpjX6Q
pIad9cts/s5AK+zf5HGXxzy6C4BqqnftYIVYqeI8kthb3uvZG5fLzx/0AioywCrb
DqTtnUwMNs4N3/O9fjfK2NdC6oB6b92QjEsFTA3c2gEsl5QtpC0QJgMIXcc+aTIh
S5of1222JtQYwcS5zzN3YVa7W/nEYmZcZX7Xe0m8Y92DfFiIGwQLYThaYLqvzXlE
I1aN+5heKGazMh/tMnh5ZUj2tt6GFCva6wIwUbevosF0AX3N3PE6nI51AgMBAAGj
ggFDMIIBPzBvBggrBgEFBQcBAQRjMGEwLwYIKwYBBQUHMAKGI2h0dHA6Ly9zdWIt
Y2EueWlqaWFuLmNvbS9zdWItY2EuY3J0MC4GCCsGAQUFBzABhiJodHRwOi8vb2Nz
cC5zdWItY2EueWlqaWFuLmNvbTo5MDgxMB8GA1UdIwQYMBaAFPOJ8FDNd2IYJgeN
QcHV0iM52xsAMAwGA1UdEwEB/wQCMAAwNAYDVR0fBC0wKzApoCegJYYjaHR0cDov
L3N1Yi1jYS55aWppYW4uY29tL3N1Yi1jYS5jcmwwHQYDVR0lBBYwFAYIKwYBBQUH
AwIGCCsGAQUFBwMBMA4GA1UdDwEB/wQEAwIFoDAdBgNVHQ4EFgQUdBR1oogm6/s9
mtKoF2mpIJ8lUPkwGQYDVR0RBBIwEIIOd3d3LmljaGluZy5jb20wDQYJKoZIhvcN
AQELBQADggIBAIOrc0hgnLyO/NwICuHDeYKoYqmCzBxvFhrQg+gemWQ9x0QCIl6D
aymkb7H8rPdlIf2048NjmhNtlm6HSEz6rIZuujECXFDznRlzChM06O+5A/jP9V21
POBj8T+Jrju2MlS5aEAfEqUbDZVzgHDIuPAiMP477apqsMltsWGEXspvzB/XKHJQ
4Ma+uyaXz44X9rXUQV2gBTpHwpI/AMp2x17o/xCMGYujQZF+aFoOQ2QRkqfPwBt+
+GLJL8fM8xBvpOF8/gF9Gx3QJKLMVFGWEDKywbSltRM8LKRk6Dz0ijmYfCxN30o5
70jX+Au9kXZ4Ks99GKmQuvySdFFpHdPHSbnwmWk+JQJdcIrqgD1A9rTzAEN8JDOe
vr4HmXDQJBJet7cfOP5z+7fXGwbwo3X6GNEo0vIWxG0jUInIhBxSkwxgdEclOq1U
pdPmYmf+azxLcp90GPYnQxMwTj/oe4Uvlj09CTMrjMP5VBu/ekbqRerUJK/7Qla8
S/7e8IRYbISmUbUrecfnEZwATsaf7TQOJfMbfie0/VjFjMbZfpZe+9pXjqCQM0xq
TMwm8vVZ6l5ClkNPpVy2BM3uEhWhpDUdBfDo4Z6vIcZKnF7/Wr7sW6zFJettWas1
YYlIl/3Msw6I67Dpotrs7FyVfgRsn9gx44HUEQX3HVK6JYj2JyUdFFUo
-----END CERTIFICATE-----
