Certificate:
    Data:
        Version: 3 (0x2)
        Serial Number:
            eb:83:ea:1f:5b:be:3b:1e:4b:7a:8c:6b:cd:2a:4f:27
    Signature Algorithm: sha256WithRSAEncryption
        Issuer: C=CN, O=Yijian, CN=Root CA
        Validity
            Not Before: Jan  7 15:54:19 2017 GMT
            Not After : Jan  5 15:54:19 2027 GMT
        Subject: C=CN, O=Yijian, CN=Sub CA
        Subject Public Key Info:
            Public Key Algorithm: rsaEncryption
                Public-Key: (4096 bit)
                Modulus:
                    00:bf:db:c8:b6:9c:9c:34:55:39:bf:45:67:f5:bc:
                    e8:9f:54:43:bd:9d:f5:41:01:07:d0:6c:5d:04:ec:
                    61:d1:2c:30:75:60:71:08:e3:05:5c:6a:28:41:57:
                    bb:95:84:13:43:28:14:02:5f:c6:99:1f:96:06:9e:
                    3e:f2:6a:a3:1b:2a:cf:82:53:d2:34:09:b9:87:6f:
                    cc:83:83:07:b7:3e:8e:eb:20:f2:f9:27:b1:72:7d:
                    6a:b1:59:bf:66:fe:04:4c:77:5a:1f:30:bf:36:56:
                    71:5d:35:2c:a3:37:79:4c:f8:ed:82:93:4c:6f:70:
                    84:25:54:ed:b4:32:ac:c9:ee:3a:89:a2:cc:a4:c1:
                    e6:5e:a4:55:ef:37:bc:0b:0e:5a:32:52:aa:e8:7c:
                    60:89:3e:39:a4:8a:7f:ad:d6:5b:6b:c4:52:1f:13:
                    23:67:f1:2f:9f:7e:b8:50:4b:92:cf:c8:c2:3d:89:
                    91:5c:94:67:92:d0:1b:6a:2d:db:69:33:b3:90:ff:
                    5b:75:b7:73:f5:82:ea:2a:4c:7a:e2:1f:d8:ad:dd:
                    0a:b4:ea:a7:0d:8a:69:6f:41:5f:7e:22:b9:55:7c:
                    e6:b3:4b:d1:7b:ce:9c:c2:58:cf:fe:1b:13:4c:39:
                    15:01:86:03:bf:4e:4e:63:59:58:d9:5e:90:90:9a:
                    a2:a0:ea:9d:43:57:6b:bb:1c:a6:21:98:ae:2e:cd:
                    d2:3c:91:85:db:82:e4:f0:b9:d1:47:ba:28:ce:3b:
                    d5:05:42:5a:f5:93:79:a0:1b:59:af:a5:8c:cf:63:
                    db:77:92:98:2f:a5:7b:75:f4:c6:89:02:21:ef:3d:
                    5c:83:ab:4a:12:dd:f3:b8:fa:82:b3:c5:f2:7e:38:
                    e7:55:8f:85:19:81:85:74:8a:df:f4:d6:f1:e2:98:
                    a4:0a:73:c9:d4:18:b9:da:26:c8:3d:91:41:c8:c3:
                    9e:63:c5:51:ce:fa:07:95:36:0e:58:12:73:6a:a6:
                    2a:64:ee:ef:57:10:fe:80:89:ef:71:60:58:bd:fa:
                    ef:fa:fe:b8:d4:0f:fd:b8:b9:23:da:30:09:d9:a5:
                    c9:e9:df:be:3a:8f:96:5d:e7:98:d2:8d:61:96:62:
                    4d:db:b3:78:d5:7a:1a:79:f0:ec:5a:c3:9b:99:23:
                    73:f0:de:27:b9:e9:31:65:17:d6:c8:ad:cc:59:aa:
                    be:e6:d3:01:ee:1b:30:37:26:35:5d:88:c4:cf:f1:
                    4e:d1:e9:73:1f:d1:7f:04:a3:fc:f2:d5:c7:f4:ef:
                    e6:92:bd:f4:d4:76:33:65:63:3b:70:4c:02:84:d3:
                    b2:26:54:49:24:87:8e:e1:67:3f:e1:73:b7:28:dd:
                    7c:1a:9d
                Exponent: 65537 (0x10001)
        X509v3 extensions:
            Authority Information Access: 
                CA Issuers - URI:http://root-ca.yijian.com/root-ca.crt
                OCSP - URI:http://ocsp.root-ca.yijian.com:9080

            X509v3 Authority Key Identifier: 
                keyid:72:0B:06:61:34:25:5B:55:D3:29:F3:E3:1F:5F:67:9A:CC:D5:94:DA

            X509v3 Basic Constraints: critical
                CA:TRUE, pathlen:0
            X509v3 CRL Distribution Points: 

                Full Name:
                  URI:http://root-ca.yijian.com/root-ca.crl

            X509v3 Extended Key Usage: 
                TLS Web Client Authentication, TLS Web Server Authentication
            X509v3 Key Usage: critical
                Certificate Sign, CRL Sign
            X509v3 Name Constraints: 
                Permitted:
                  DNS:yijian.com
                  DNS:yijian.org
                Excluded:
                  IP:0.0.0.0/0.0.0.0
                  IP:0.0.0.0/0.0.0.0

            X509v3 Subject Key Identifier: 
                4F:0C:C6:21:06:74:3E:63:F5:C8:08:A2:2B:EF:F5:A3:F4:CF:1F:19
    Signature Algorithm: sha256WithRSAEncryption
         4c:90:07:d0:52:4b:00:7f:86:ba:9b:6c:c0:b7:ca:9a:b9:95:
         87:91:4e:1d:f5:bb:17:78:d2:ff:40:ca:15:cd:d9:ad:4b:56:
         26:39:a1:c6:95:c0:40:7b:c4:02:dc:26:b0:6c:1d:bf:cf:37:
         f9:68:c5:a0:6b:16:b0:58:c8:5d:25:d8:c0:2e:ca:d7:a5:be:
         3d:8e:66:82:5f:1a:90:1b:f3:f2:00:8b:a6:e9:74:47:39:18:
         94:21:b8:40:71:9c:84:07:c5:24:08:0c:69:52:77:51:bc:84:
         39:1f:11:4c:3d:59:71:32:22:6c:dd:25:1c:4b:41:0d:aa:ac:
         93:49:e5:29:b9:4e:6b:69:43:3c:08:45:65:c9:47:71:ad:92:
         b3:c3:7f:7f:07:38:f0:1f:a3:a6:37:8c:81:ef:64:ac:14:b8:
         53:1c:80:d6:7e:99:a6:94:18:58:14:cc:be:ab:15:de:1b:2c:
         1a:3b:ef:cd:f5:84:9a:e1:71:74:3b:37:b0:81:d0:83:c1:25:
         09:7e:a2:62:8d:a9:65:7c:a4:64:85:0d:ca:7d:89:c4:58:54:
         d0:0d:d0:59:34:4d:3a:d4:2b:dd:00:4a:df:c0:d8:78:66:14:
         03:b1:8b:68:16:4c:54:3d:86:e0:97:e7:3a:12:f8:d6:88:1b:
         6a:4b:f0:37:74:12:13:cc:11:c2:7f:3c:38:d3:b9:1e:88:e3:
         ec:5e:c0:20:f7:c1:fb:d0:24:ef:8e:8f:7a:f3:03:d3:e5:87:
         92:ad:85:fb:22:ed:3b:f5:dc:0f:4f:55:ea:d3:5a:9f:28:91:
         c4:e0:6f:7b:4c:8e:70:3d:cf:0d:eb:b0:5e:86:c5:18:b6:ca:
         5b:40:31:f6:cb:3f:eb:fa:57:d0:d9:08:dc:63:e3:b4:91:ae:
         e0:76:fd:33:79:43:07:26:11:2b:06:d6:e6:49:c9:dc:71:2c:
         ca:8c:9f:b2:f7:4c:b2:3c:20:c6:ac:a1:ab:7d:1b:91:5c:a1:
         88:4f:ed:a9:0e:a2:99:89:d0:76:24:2a:7e:f1:fc:c0:d5:f4:
         0e:bd:0e:30:8d:f3:64:3d:d7:03:f0:0d:64:85:cb:e3:67:d6:
         b1:23:2c:95:84:f8:3b:7c:25:95:4c:55:f7:62:06:16:cc:2b:
         07:28:28:3b:2e:61:ad:7a:94:b9:93:48:30:1f:e2:24:0b:91:
         a2:4a:b4:23:f4:07:da:7a:bc:5d:ea:79:e4:97:ad:4f:9d:1d:
         a0:01:6b:ea:2c:14:c1:d0:4a:ca:be:5b:8b:92:53:af:0e:7c:
         be:7b:5b:f7:97:25:d2:bf:14:cb:c8:a9:81:ab:a5:c4:46:df:
         73:0c:08:c3:75:8d:ca:30
-----BEGIN CERTIFICATE-----
MIIGYjCCBEqgAwIBAgIRAOuD6h9bvjseS3qMa80qTycwDQYJKoZIhvcNAQELBQAw
MDELMAkGA1UEBhMCQ04xDzANBgNVBAoMBllpamlhbjEQMA4GA1UEAwwHUm9vdCBD
QTAeFw0xNzAxMDcxNTU0MTlaFw0yNzAxMDUxNTU0MTlaMC8xCzAJBgNVBAYTAkNO
MQ8wDQYDVQQKDAZZaWppYW4xDzANBgNVBAMMBlN1YiBDQTCCAiIwDQYJKoZIhvcN
AQEBBQADggIPADCCAgoCggIBAL/byLacnDRVOb9FZ/W86J9UQ72d9UEBB9BsXQTs
YdEsMHVgcQjjBVxqKEFXu5WEE0MoFAJfxpkflgaePvJqoxsqz4JT0jQJuYdvzIOD
B7c+jusg8vknsXJ9arFZv2b+BEx3Wh8wvzZWcV01LKM3eUz47YKTTG9whCVU7bQy
rMnuOomizKTB5l6kVe83vAsOWjJSquh8YIk+OaSKf63WW2vEUh8TI2fxL59+uFBL
ks/Iwj2JkVyUZ5LQG2ot22kzs5D/W3W3c/WC6ipMeuIf2K3dCrTqpw2KaW9BX34i
uVV85rNL0XvOnMJYz/4bE0w5FQGGA79OTmNZWNlekJCaoqDqnUNXa7scpiGYri7N
0jyRhduC5PC50Ue6KM471QVCWvWTeaAbWa+ljM9j23eSmC+le3X0xokCIe89XIOr
ShLd87j6grPF8n4451WPhRmBhXSK3/TW8eKYpApzydQYudomyD2RQcjDnmPFUc76
B5U2DlgSc2qmKmTu71cQ/oCJ73FgWL367/r+uNQP/bi5I9owCdmlyenfvjqPll3n
mNKNYZZiTduzeNV6Gnnw7FrDm5kjc/DeJ7npMWUX1sitzFmqvubTAe4bMDcmNV2I
xM/xTtHpcx/RfwSj/PLVx/Tv5pK99NR2M2VjO3BMAoTTsiZUSSSHjuFnP+Fztyjd
fBqdAgMBAAGjggF2MIIBcjByBggrBgEFBQcBAQRmMGQwMQYIKwYBBQUHMAKGJWh0
dHA6Ly9yb290LWNhLnlpamlhbi5jb20vcm9vdC1jYS5jcnQwLwYIKwYBBQUHMAGG
I2h0dHA6Ly9vY3NwLnJvb3QtY2EueWlqaWFuLmNvbTo5MDgwMB8GA1UdIwQYMBaA
FHILBmE0JVtV0ynz4x9fZ5rM1ZTaMBIGA1UdEwEB/wQIMAYBAf8CAQAwNgYDVR0f
BC8wLTAroCmgJ4YlaHR0cDovL3Jvb3QtY2EueWlqaWFuLmNvbS9yb290LWNhLmNy
bDAdBgNVHSUEFjAUBggrBgEFBQcDAgYIKwYBBQUHAwEwDgYDVR0PAQH/BAQDAgEG
MEEGA1UdHgQ6MDigHDAMggp5aWppYW4uY29tMAyCCnlpamlhbi5vcmehGDAKhwgA
AAAAAAAAADAKhwgAAAAAAAAAADAdBgNVHQ4EFgQUTwzGIQZ0PmP1yAiiK+/1o/TP
HxkwDQYJKoZIhvcNAQELBQADggIBAEyQB9BSSwB/hrqbbMC3ypq5lYeRTh31uxd4
0v9AyhXN2a1LViY5ocaVwEB7xALcJrBsHb/PN/loxaBrFrBYyF0l2MAuytelvj2O
ZoJfGpAb8/IAi6bpdEc5GJQhuEBxnIQHxSQIDGlSd1G8hDkfEUw9WXEyImzdJRxL
QQ2qrJNJ5Sm5TmtpQzwIRWXJR3GtkrPDf38HOPAfo6Y3jIHvZKwUuFMcgNZ+maaU
GFgUzL6rFd4bLBo77831hJrhcXQ7N7CB0IPBJQl+omKNqWV8pGSFDcp9icRYVNAN
0Fk0TTrUK90ASt/A2HhmFAOxi2gWTFQ9huCX5zoS+NaIG2pL8Dd0EhPMEcJ/PDjT
uR6I4+xewCD3wfvQJO+Oj3rzA9Plh5Kthfsi7Tv13A9PVerTWp8okcTgb3tMjnA9
zw3rsF6GxRi2yltAMfbLP+v6V9DZCNxj47SRruB2/TN5QwcmESsG1uZJydxxLMqM
n7L3TLI8IMasoat9G5FcoYhP7akOopmJ0HYkKn7x/MDV9A69DjCN82Q91wPwDWSF
y+Nn1rEjLJWE+Dt8JZVMVfdiBhbMKwcoKDsuYa16lLmTSDAf4iQLkaJKtCP0B9p6
vF3qeeSXrU+dHaABa+osFMHQSsq+W4uSU68OfL57W/eXJdK/FMvIqYGrpcRG33MM
CMN1jcow
-----END CERTIFICATE-----
