Certificate:
    Data:
        Version: 3 (0x2)
        Serial Number:
            eb:83:ea:1f:5b:be:3b:1e:4b:7a:8c:6b:cd:2a:4f:30
    Signature Algorithm: sha256WithRSAEncryption
        Issuer: C=CN, O=yijian, CN=Root CA
        Validity
            Not Before: Jan 16 02:53:23 2017 GMT
            Not After : Jan 14 02:53:23 2027 GMT
        Subject: C=CN, O=yijian, CN=Sub CA
        Subject Public Key Info:
            Public Key Algorithm: rsaEncryption
                Public-Key: (4096 bit)
                Modulus:
                    00:b1:c2:b7:ec:d2:b7:e2:d4:79:a0:84:65:7b:d3:
                    79:ad:ff:31:9f:cc:66:b4:43:f0:03:80:e3:68:ee:
                    6d:82:c1:42:a8:d9:72:77:bb:64:e0:a4:fb:f2:fe:
                    87:35:5d:4d:f6:8d:4b:6c:74:af:3d:8c:47:98:e4:
                    50:3a:ac:58:ae:ce:55:94:11:20:4f:9f:6a:03:2c:
                    7e:8f:ba:14:68:a2:b9:9f:aa:24:0f:7e:39:a9:a2:
                    73:d5:8a:bc:35:0c:97:0c:60:b8:d6:a2:9b:ae:44:
                    52:1c:53:26:42:ec:41:bb:8c:ca:20:76:d8:2b:11:
                    b3:81:9c:0c:24:95:f3:ed:40:b9:df:6d:15:91:63:
                    96:1b:ee:b5:90:af:fb:fb:e8:33:e2:f5:41:50:bb:
                    75:a8:b4:b0:df:e2:dd:a6:ee:fe:7d:68:3a:61:a9:
                    29:e8:64:f9:91:1e:c7:5d:19:fa:6b:f2:29:79:3c:
                    4b:53:a5:85:6e:4f:a9:0e:c8:af:e1:17:6e:30:2e:
                    bf:7b:48:a0:a8:a0:1c:24:31:a0:9d:a7:55:c6:c4:
                    44:65:40:35:5b:03:89:dd:4f:bd:90:9b:1c:67:16:
                    97:a6:37:48:a6:ab:8a:f6:cf:03:f4:50:af:b5:f4:
                    cf:01:b0:32:66:6f:54:b9:1b:dc:48:90:db:a4:98:
                    0e:a3:5b:21:d3:bb:1d:71:a7:39:05:c8:ac:e7:02:
                    a1:ed:d9:f4:fb:8e:40:da:b3:9a:6b:dc:ee:ce:a2:
                    87:16:e9:35:84:c1:c1:1b:24:e4:55:e7:3e:ee:aa:
                    75:b0:7f:c3:d6:06:f1:03:86:d6:61:47:14:94:e9:
                    cc:cc:36:5d:d9:84:eb:e7:a5:a8:05:31:f5:f7:e6:
                    32:e9:9b:88:03:6d:d4:e5:77:b9:8c:77:89:cc:f2:
                    cc:1d:fc:04:11:f2:98:48:08:83:16:aa:b6:58:d0:
                    08:3f:1a:bd:a1:80:8a:27:e8:45:18:3f:5c:2a:8d:
                    48:64:24:bd:a0:5d:c3:bb:78:a4:05:a1:11:38:62:
                    c3:68:2e:d8:c8:2d:7e:d1:36:3a:33:f2:03:e7:d0:
                    31:7c:ad:e3:ec:03:62:3c:ce:4b:01:cf:f7:6c:95:
                    9c:d1:2a:bb:95:cb:e2:ce:f0:bc:b4:ca:b8:a6:ca:
                    8f:cc:d9:6a:6d:93:eb:2d:bb:37:52:24:8e:d4:e8:
                    44:3a:a8:30:b5:1e:ad:b8:0d:58:b4:39:51:01:4b:
                    c7:a9:4b:7b:38:c4:27:ac:a2:ae:eb:ee:f3:8e:18:
                    a2:cd:ce:3b:1f:f5:7b:3d:28:6d:6b:66:ba:2b:30:
                    fe:32:4c:ea:62:55:d2:c8:8a:ed:29:4c:17:3f:bd:
                    fe:0a:cf
                Exponent: 65537 (0x10001)
        X509v3 extensions:
            Authority Information Access: 
                CA Issuers - URI:http://root-ca.yijian.com/root-ca.crt
                OCSP - URI:http://ocsp.root-ca.yijian.com:9080

            X509v3 Authority Key Identifier: 
                keyid:73:AA:F3:6A:D8:30:A3:27:B9:59:DE:1F:B7:97:C7:D3:31:6F:27:D7

            X509v3 Basic Constraints: critical
                CA:TRUE, pathlen:0
            X509v3 CRL Distribution Points: 

                Full Name:
                  URI:http://root-ca.yijian.com/root-ca.crl

            X509v3 Extended Key Usage: 
                TLS Web Client Authentication, TLS Web Server Authentication
            X509v3 Key Usage: critical
                Certificate Sign, CRL Sign
            X509v3 Name Constraints: 
                Permitted:
                  DNS:yijian.com
                  DNS:yijian.org
                Excluded:
                  IP:0.0.0.0/0.0.0.0
                  IP:0:0:0:0:0:0:0:0/0:0:0:0:0:0:0:0

            X509v3 Subject Key Identifier: 
                F3:89:F0:50:CD:77:62:18:26:07:8D:41:C1:D5:D2:23:39:DB:1B:00
    Signature Algorithm: sha256WithRSAEncryption
         99:83:09:0a:74:95:9d:49:db:8a:be:7d:94:ef:07:24:cd:07:
         c2:53:a6:15:a7:17:2d:b2:aa:c7:48:3f:ef:58:ba:59:b4:07:
         39:30:ee:44:6c:25:b5:d1:2e:ff:05:9a:ee:dc:3f:ed:85:5d:
         0b:7c:63:2c:da:eb:98:08:12:2d:d0:b2:de:a3:04:5e:f0:8b:
         f6:58:73:ed:03:b3:77:5d:6d:7e:57:b1:21:37:4c:88:73:68:
         86:ee:53:47:40:90:de:03:65:85:5f:1b:f3:d7:3e:c8:4c:fb:
         63:1f:7b:4e:44:54:e9:7a:f5:00:a2:d6:f4:e4:c5:a3:92:ab:
         bb:be:4b:f6:bc:71:33:fb:87:be:16:1f:96:67:52:28:20:87:
         d0:b2:e4:66:54:0e:d2:37:94:38:3e:5a:6b:bf:40:fb:12:05:
         cc:99:87:80:dd:f7:c8:18:6d:12:4e:80:13:31:bb:78:9f:87:
         db:31:93:4c:8e:00:c3:c1:6e:f0:ca:80:d7:69:8e:1e:2d:25:
         9d:8b:fa:b5:ee:6e:97:f6:e6:7a:dd:c2:e8:f5:68:08:29:a5:
         01:00:3f:52:6c:01:29:33:a9:34:9d:7e:01:8c:ae:f4:99:d8:
         da:51:3c:26:79:1a:e6:65:3a:1c:3d:6f:ba:0c:46:78:5a:fe:
         ec:ae:26:8a:46:50:4f:ed:57:83:ad:9e:ab:35:06:5e:26:0e:
         a7:55:d3:91:82:bb:14:90:72:69:60:74:86:c1:b1:aa:6c:ce:
         a6:ce:b7:5c:b6:a5:c8:b1:f3:96:fc:37:98:5f:38:59:b7:18:
         eb:1c:51:9f:56:a8:05:ee:63:ef:18:64:e0:62:33:83:e5:04:
         46:7a:52:c6:86:c6:e5:5c:b7:73:dc:64:42:a9:06:fb:a3:d0:
         1c:1d:f9:28:b8:43:68:9b:fd:0e:8a:c5:bc:f7:4d:3e:45:21:
         15:db:57:27:a9:8e:aa:de:88:c9:6e:4f:19:3a:7a:99:01:ff:
         3f:94:af:e7:ae:f0:e5:30:9c:61:83:90:b7:9c:a4:05:62:48:
         8b:59:4a:44:cd:56:a2:a7:8f:ed:df:e0:f5:06:8b:dd:c9:3b:
         e6:09:20:eb:4f:33:c5:24:0d:27:cb:30:6b:06:f0:fc:0b:88:
         0f:88:93:80:91:cd:d0:40:c2:50:8b:1b:e0:e7:92:00:3b:63:
         cd:29:e9:9d:ab:7d:7b:7a:34:d7:16:a0:d8:c8:38:63:8e:de:
         6d:c9:12:b3:16:5a:9f:d1:8e:a1:8a:be:dc:01:55:2a:2c:41:
         f7:82:ba:be:cd:e5:f2:9a:e9:36:57:25:ec:46:39:1a:a0:1b:
         16:cb:bd:cc:5e:84:01:70
-----BEGIN CERTIFICATE-----
MIIGejCCBGKgAwIBAgIRAOuD6h9bvjseS3qMa80qTzAwDQYJKoZIhvcNAQELBQAw
MDELMAkGA1UEBhMCQ04xDzANBgNVBAoMBnlpamlhbjEQMA4GA1UEAwwHUm9vdCBD
QTAeFw0xNzAxMTYwMjUzMjNaFw0yNzAxMTQwMjUzMjNaMC8xCzAJBgNVBAYTAkNO
MQ8wDQYDVQQKDAZ5aWppYW4xDzANBgNVBAMMBlN1YiBDQTCCAiIwDQYJKoZIhvcN
AQEBBQADggIPADCCAgoCggIBALHCt+zSt+LUeaCEZXvTea3/MZ/MZrRD8AOA42ju
bYLBQqjZcne7ZOCk+/L+hzVdTfaNS2x0rz2MR5jkUDqsWK7OVZQRIE+fagMsfo+6
FGiiuZ+qJA9+Oamic9WKvDUMlwxguNaim65EUhxTJkLsQbuMyiB22CsRs4GcDCSV
8+1Aud9tFZFjlhvutZCv+/voM+L1QVC7dai0sN/i3abu/n1oOmGpKehk+ZEex10Z
+mvyKXk8S1OlhW5PqQ7Ir+EXbjAuv3tIoKigHCQxoJ2nVcbERGVANVsDid1PvZCb
HGcWl6Y3SKarivbPA/RQr7X0zwGwMmZvVLkb3EiQ26SYDqNbIdO7HXGnOQXIrOcC
oe3Z9PuOQNqzmmvc7s6ihxbpNYTBwRsk5FXnPu6qdbB/w9YG8QOG1mFHFJTpzMw2
XdmE6+elqAUx9ffmMumbiANt1OV3uYx3iczyzB38BBHymEgIgxaqtljQCD8avaGA
iifoRRg/XCqNSGQkvaBdw7t4pAWhEThiw2gu2MgtftE2OjPyA+fQMXyt4+wDYjzO
SwHP92yVnNEqu5XL4s7wvLTKuKbKj8zZam2T6y27N1IkjtToRDqoMLUerbgNWLQ5
UQFLx6lLezjEJ6yiruvu844Yos3OOx/1ez0obWtmuisw/jJM6mJV0siK7SlMFz+9
/grPAgMBAAGjggGOMIIBijByBggrBgEFBQcBAQRmMGQwMQYIKwYBBQUHMAKGJWh0
dHA6Ly9yb290LWNhLnlpamlhbi5jb20vcm9vdC1jYS5jcnQwLwYIKwYBBQUHMAGG
I2h0dHA6Ly9vY3NwLnJvb3QtY2EueWlqaWFuLmNvbTo5MDgwMB8GA1UdIwQYMBaA
FHOq82rYMKMnuVneH7eXx9MxbyfXMBIGA1UdEwEB/wQIMAYBAf8CAQAwNgYDVR0f
BC8wLTAroCmgJ4YlaHR0cDovL3Jvb3QtY2EueWlqaWFuLmNvbS9yb290LWNhLmNy
bDAdBgNVHSUEFjAUBggrBgEFBQcDAgYIKwYBBQUHAwEwDgYDVR0PAQH/BAQDAgEG
MFkGA1UdHgRSMFCgHDAMggp5aWppYW4uY29tMAyCCnlpamlhbi5vcmehMDAKhwgA
AAAAAAAAADAihyAAAAAAAAAAAAAAAAAAAAAAAAAAAAAAAAAAAAAAAAAAADAdBgNV
HQ4EFgQU84nwUM13YhgmB41BwdXSIznbGwAwDQYJKoZIhvcNAQELBQADggIBAJmD
CQp0lZ1J24q+fZTvByTNB8JTphWnFy2yqsdIP+9Yulm0Bzkw7kRsJbXRLv8Fmu7c
P+2FXQt8Yyza65gIEi3Qst6jBF7wi/ZYc+0Ds3ddbX5XsSE3TIhzaIbuU0dAkN4D
ZYVfG/PXPshM+2Mfe05EVOl69QCi1vTkxaOSq7u+S/a8cTP7h74WH5ZnUiggh9Cy
5GZUDtI3lDg+Wmu/QPsSBcyZh4Dd98gYbRJOgBMxu3ifh9sxk0yOAMPBbvDKgNdp
jh4tJZ2L+rXubpf25nrdwuj1aAgppQEAP1JsASkzqTSdfgGMrvSZ2NpRPCZ5GuZl
Ohw9b7oMRnha/uyuJopGUE/tV4Otnqs1Bl4mDqdV05GCuxSQcmlgdIbBsapszqbO
t1y2pcix85b8N5hfOFm3GOscUZ9WqAXuY+8YZOBiM4PlBEZ6UsaGxuVct3PcZEKp
Bvuj0Bwd+Si4Q2ib/Q6Kxbz3TT5FIRXbVyepjqreiMluTxk6epkB/z+Ur+eu8OUw
nGGDkLecpAViSItZSkTNVqKnj+3f4PUGi93JO+YJIOtPM8UkDSfLMGsG8PwLiA+I
k4CRzdBAwlCLG+DnkgA7Y80p6Z2rfXt6NNcWoNjIOGOO3m3JErMWWp/RjqGKvtwB
VSosQfeCur7N5fKa6TZXJexGORqgGxbLvcxehAFw
-----END CERTIFICATE-----
